
;CodeVisionAVR C Compiler V3.12 Advanced
;(C) Copyright 1998-2014 Pavel Haiduc, HP InfoTech s.r.l.
;http://www.hpinfotech.com

;Build configuration    : Release
;Chip type              : ATtiny13A
;Program type           : Application
;Clock frequency        : 1,200000 MHz
;Memory model           : Tiny
;Optimize for           : Size
;(s)printf features     : int, width
;(s)scanf features      : int, width
;External RAM size      : 0
;Data Stack size        : 32 byte(s)
;Heap size              : 0 byte(s)
;Promote 'char' to 'int': Yes
;'char' is unsigned     : Yes
;8 bit enums            : Yes
;Global 'const' stored in FLASH: Yes
;Enhanced function parameter passing: Yes
;Automatic register allocation for global variables: On
;Smart register allocation: Off

	#define _MODEL_TINY_

	#pragma AVRPART ADMIN PART_NAME ATtiny13A
	#pragma AVRPART MEMORY PROG_FLASH 1024
	#pragma AVRPART MEMORY EEPROM 64
	#pragma AVRPART MEMORY INT_SRAM SIZE 64
	#pragma AVRPART MEMORY INT_SRAM START_ADDR 0x60

	.LISTMAC
	.EQU EERE=0x0
	.EQU EEWE=0x1
	.EQU EEMWE=0x2
	.EQU EECR=0x1C
	.EQU EEDR=0x1D
	.EQU EEARL=0x1E

	.EQU WDTCR=0x21
	.EQU MCUSR=0x34
	.EQU MCUCR=0x35
	.EQU SPL=0x3D
	.EQU SREG=0x3F

	.DEF R0X0=R0
	.DEF R0X1=R1
	.DEF R0X2=R2
	.DEF R0X3=R3
	.DEF R0X4=R4
	.DEF R0X5=R5
	.DEF R0X6=R6
	.DEF R0X7=R7
	.DEF R0X8=R8
	.DEF R0X9=R9
	.DEF R0XA=R10
	.DEF R0XB=R11
	.DEF R0XC=R12
	.DEF R0XD=R13
	.DEF R0XE=R14
	.DEF R0XF=R15
	.DEF R0X10=R16
	.DEF R0X11=R17
	.DEF R0X12=R18
	.DEF R0X13=R19
	.DEF R0X14=R20
	.DEF R0X15=R21
	.DEF R0X16=R22
	.DEF R0X17=R23
	.DEF R0X18=R24
	.DEF R0X19=R25
	.DEF R0X1A=R26
	.DEF R0X1B=R27
	.DEF R0X1C=R28
	.DEF R0X1D=R29
	.DEF R0X1E=R30
	.DEF R0X1F=R31

	.EQU __SRAM_START=0x0060
	.EQU __SRAM_END=0x009F
	.EQU __DSTACK_SIZE=0x0020
	.EQU __HEAP_SIZE=0x0000
	.EQU __CLEAR_SRAM_SIZE=__SRAM_END-__SRAM_START+1

	.MACRO __CPD1N
	CPI  R30,LOW(@0)
	LDI  R26,HIGH(@0)
	CPC  R31,R26
	LDI  R26,BYTE3(@0)
	CPC  R22,R26
	LDI  R26,BYTE4(@0)
	CPC  R23,R26
	.ENDM

	.MACRO __CPD2N
	CPI  R26,LOW(@0)
	LDI  R30,HIGH(@0)
	CPC  R27,R30
	LDI  R30,BYTE3(@0)
	CPC  R24,R30
	LDI  R30,BYTE4(@0)
	CPC  R25,R30
	.ENDM

	.MACRO __CPWRR
	CP   R@0,R@2
	CPC  R@1,R@3
	.ENDM

	.MACRO __CPWRN
	CPI  R@0,LOW(@2)
	LDI  R30,HIGH(@2)
	CPC  R@1,R30
	.ENDM

	.MACRO __ADDB1MN
	SUBI R30,LOW(-@0-(@1))
	.ENDM

	.MACRO __ADDB2MN
	SUBI R26,LOW(-@0-(@1))
	.ENDM

	.MACRO __ADDW1MN
	SUBI R30,LOW(-@0-(@1))
	SBCI R31,HIGH(-@0-(@1))
	.ENDM

	.MACRO __ADDW2MN
	SUBI R26,LOW(-@0-(@1))
	SBCI R27,HIGH(-@0-(@1))
	.ENDM

	.MACRO __ADDW1FN
	SUBI R30,LOW(-2*@0-(@1))
	SBCI R31,HIGH(-2*@0-(@1))
	.ENDM

	.MACRO __ADDD1FN
	SUBI R30,LOW(-2*@0-(@1))
	SBCI R31,HIGH(-2*@0-(@1))
	SBCI R22,BYTE3(-2*@0-(@1))
	.ENDM

	.MACRO __ADDD1N
	SUBI R30,LOW(-@0)
	SBCI R31,HIGH(-@0)
	SBCI R22,BYTE3(-@0)
	SBCI R23,BYTE4(-@0)
	.ENDM

	.MACRO __ADDD2N
	SUBI R26,LOW(-@0)
	SBCI R27,HIGH(-@0)
	SBCI R24,BYTE3(-@0)
	SBCI R25,BYTE4(-@0)
	.ENDM

	.MACRO __SUBD1N
	SUBI R30,LOW(@0)
	SBCI R31,HIGH(@0)
	SBCI R22,BYTE3(@0)
	SBCI R23,BYTE4(@0)
	.ENDM

	.MACRO __SUBD2N
	SUBI R26,LOW(@0)
	SBCI R27,HIGH(@0)
	SBCI R24,BYTE3(@0)
	SBCI R25,BYTE4(@0)
	.ENDM

	.MACRO __ANDBMNN
	LDS  R30,@0+(@1)
	ANDI R30,LOW(@2)
	STS  @0+(@1),R30
	.ENDM

	.MACRO __ANDWMNN
	LDS  R30,@0+(@1)
	ANDI R30,LOW(@2)
	STS  @0+(@1),R30
	LDS  R30,@0+(@1)+1
	ANDI R30,HIGH(@2)
	STS  @0+(@1)+1,R30
	.ENDM

	.MACRO __ANDD1N
	ANDI R30,LOW(@0)
	ANDI R31,HIGH(@0)
	ANDI R22,BYTE3(@0)
	ANDI R23,BYTE4(@0)
	.ENDM

	.MACRO __ANDD2N
	ANDI R26,LOW(@0)
	ANDI R27,HIGH(@0)
	ANDI R24,BYTE3(@0)
	ANDI R25,BYTE4(@0)
	.ENDM

	.MACRO __ORBMNN
	LDS  R30,@0+(@1)
	ORI  R30,LOW(@2)
	STS  @0+(@1),R30
	.ENDM

	.MACRO __ORWMNN
	LDS  R30,@0+(@1)
	ORI  R30,LOW(@2)
	STS  @0+(@1),R30
	LDS  R30,@0+(@1)+1
	ORI  R30,HIGH(@2)
	STS  @0+(@1)+1,R30
	.ENDM

	.MACRO __ORD1N
	ORI  R30,LOW(@0)
	ORI  R31,HIGH(@0)
	ORI  R22,BYTE3(@0)
	ORI  R23,BYTE4(@0)
	.ENDM

	.MACRO __ORD2N
	ORI  R26,LOW(@0)
	ORI  R27,HIGH(@0)
	ORI  R24,BYTE3(@0)
	ORI  R25,BYTE4(@0)
	.ENDM

	.MACRO __DELAY_USB
	LDI  R24,LOW(@0)
__DELAY_USB_LOOP:
	DEC  R24
	BRNE __DELAY_USB_LOOP
	.ENDM

	.MACRO __DELAY_USW
	LDI  R24,LOW(@0)
	LDI  R25,HIGH(@0)
__DELAY_USW_LOOP:
	SBIW R24,1
	BRNE __DELAY_USW_LOOP
	.ENDM

	.MACRO __GETD1S
	LDD  R30,Y+@0
	LDD  R31,Y+@0+1
	LDD  R22,Y+@0+2
	LDD  R23,Y+@0+3
	.ENDM

	.MACRO __GETD2S
	LDD  R26,Y+@0
	LDD  R27,Y+@0+1
	LDD  R24,Y+@0+2
	LDD  R25,Y+@0+3
	.ENDM

	.MACRO __PUTD1S
	STD  Y+@0,R30
	STD  Y+@0+1,R31
	STD  Y+@0+2,R22
	STD  Y+@0+3,R23
	.ENDM

	.MACRO __PUTD2S
	STD  Y+@0,R26
	STD  Y+@0+1,R27
	STD  Y+@0+2,R24
	STD  Y+@0+3,R25
	.ENDM

	.MACRO __PUTDZ2
	STD  Z+@0,R26
	STD  Z+@0+1,R27
	STD  Z+@0+2,R24
	STD  Z+@0+3,R25
	.ENDM

	.MACRO __CLRD1S
	STD  Y+@0,R30
	STD  Y+@0+1,R30
	STD  Y+@0+2,R30
	STD  Y+@0+3,R30
	.ENDM

	.MACRO __POINTB1MN
	LDI  R30,LOW(@0+(@1))
	.ENDM

	.MACRO __POINTW1MN
	LDI  R30,LOW(@0+(@1))
	LDI  R31,HIGH(@0+(@1))
	.ENDM

	.MACRO __POINTD1M
	LDI  R30,LOW(@0)
	LDI  R31,HIGH(@0)
	LDI  R22,BYTE3(@0)
	LDI  R23,BYTE4(@0)
	.ENDM

	.MACRO __POINTW1FN
	LDI  R30,LOW(2*@0+(@1))
	LDI  R31,HIGH(2*@0+(@1))
	.ENDM

	.MACRO __POINTD1FN
	LDI  R30,LOW(2*@0+(@1))
	LDI  R31,HIGH(2*@0+(@1))
	LDI  R22,BYTE3(2*@0+(@1))
	LDI  R23,BYTE4(2*@0+(@1))
	.ENDM

	.MACRO __POINTB2MN
	LDI  R26,LOW(@0+(@1))
	.ENDM

	.MACRO __POINTW2MN
	LDI  R26,LOW(@0+(@1))
	LDI  R27,HIGH(@0+(@1))
	.ENDM

	.MACRO __POINTW2FN
	LDI  R26,LOW(2*@0+(@1))
	LDI  R27,HIGH(2*@0+(@1))
	.ENDM

	.MACRO __POINTD2FN
	LDI  R26,LOW(2*@0+(@1))
	LDI  R27,HIGH(2*@0+(@1))
	LDI  R24,BYTE3(2*@0+(@1))
	LDI  R25,BYTE4(2*@0+(@1))
	.ENDM

	.MACRO __POINTBRM
	LDI  R@0,LOW(@1)
	.ENDM

	.MACRO __POINTWRM
	LDI  R@0,LOW(@2)
	LDI  R@1,HIGH(@2)
	.ENDM

	.MACRO __POINTBRMN
	LDI  R@0,LOW(@1+(@2))
	.ENDM

	.MACRO __POINTWRMN
	LDI  R@0,LOW(@2+(@3))
	LDI  R@1,HIGH(@2+(@3))
	.ENDM

	.MACRO __POINTWRFN
	LDI  R@0,LOW(@2*2+(@3))
	LDI  R@1,HIGH(@2*2+(@3))
	.ENDM

	.MACRO __GETD1N
	LDI  R30,LOW(@0)
	LDI  R31,HIGH(@0)
	LDI  R22,BYTE3(@0)
	LDI  R23,BYTE4(@0)
	.ENDM

	.MACRO __GETD2N
	LDI  R26,LOW(@0)
	LDI  R27,HIGH(@0)
	LDI  R24,BYTE3(@0)
	LDI  R25,BYTE4(@0)
	.ENDM

	.MACRO __GETB1MN
	LDS  R30,@0+(@1)
	.ENDM

	.MACRO __GETB1HMN
	LDS  R31,@0+(@1)
	.ENDM

	.MACRO __GETW1MN
	LDS  R30,@0+(@1)
	LDS  R31,@0+(@1)+1
	.ENDM

	.MACRO __GETD1MN
	LDS  R30,@0+(@1)
	LDS  R31,@0+(@1)+1
	LDS  R22,@0+(@1)+2
	LDS  R23,@0+(@1)+3
	.ENDM

	.MACRO __GETBRMN
	LDS  R@0,@1+(@2)
	.ENDM

	.MACRO __GETWRMN
	LDS  R@0,@2+(@3)
	LDS  R@1,@2+(@3)+1
	.ENDM

	.MACRO __GETWRZ
	LDD  R@0,Z+@2
	LDD  R@1,Z+@2+1
	.ENDM

	.MACRO __GETD2Z
	LDD  R26,Z+@0
	LDD  R27,Z+@0+1
	LDD  R24,Z+@0+2
	LDD  R25,Z+@0+3
	.ENDM

	.MACRO __GETB2MN
	LDS  R26,@0+(@1)
	.ENDM

	.MACRO __GETW2MN
	LDS  R26,@0+(@1)
	LDS  R27,@0+(@1)+1
	.ENDM

	.MACRO __GETD2MN
	LDS  R26,@0+(@1)
	LDS  R27,@0+(@1)+1
	LDS  R24,@0+(@1)+2
	LDS  R25,@0+(@1)+3
	.ENDM

	.MACRO __PUTB1MN
	STS  @0+(@1),R30
	.ENDM

	.MACRO __PUTW1MN
	STS  @0+(@1),R30
	STS  @0+(@1)+1,R31
	.ENDM

	.MACRO __PUTD1MN
	STS  @0+(@1),R30
	STS  @0+(@1)+1,R31
	STS  @0+(@1)+2,R22
	STS  @0+(@1)+3,R23
	.ENDM

	.MACRO __PUTB1EN
	LDI  R26,LOW(@0+(@1))
	LDI  R27,HIGH(@0+(@1))
	RCALL __EEPROMWRB
	.ENDM

	.MACRO __PUTW1EN
	LDI  R26,LOW(@0+(@1))
	LDI  R27,HIGH(@0+(@1))
	RCALL __EEPROMWRW
	.ENDM

	.MACRO __PUTD1EN
	LDI  R26,LOW(@0+(@1))
	LDI  R27,HIGH(@0+(@1))
	RCALL __EEPROMWRD
	.ENDM

	.MACRO __PUTBR0MN
	STS  @0+(@1),R0
	.ENDM

	.MACRO __PUTBMRN
	STS  @0+(@1),R@2
	.ENDM

	.MACRO __PUTWMRN
	STS  @0+(@1),R@2
	STS  @0+(@1)+1,R@3
	.ENDM

	.MACRO __PUTBZR
	STD  Z+@1,R@0
	.ENDM

	.MACRO __PUTWZR
	STD  Z+@2,R@0
	STD  Z+@2+1,R@1
	.ENDM

	.MACRO __GETW1R
	MOV  R30,R@0
	MOV  R31,R@1
	.ENDM

	.MACRO __GETW2R
	MOV  R26,R@0
	MOV  R27,R@1
	.ENDM

	.MACRO __GETWRN
	LDI  R@0,LOW(@2)
	LDI  R@1,HIGH(@2)
	.ENDM

	.MACRO __PUTW1R
	MOV  R@0,R30
	MOV  R@1,R31
	.ENDM

	.MACRO __PUTW2R
	MOV  R@0,R26
	MOV  R@1,R27
	.ENDM

	.MACRO __ADDWRN
	SUBI R@0,LOW(-@2)
	SBCI R@1,HIGH(-@2)
	.ENDM

	.MACRO __ADDWRR
	ADD  R@0,R@2
	ADC  R@1,R@3
	.ENDM

	.MACRO __SUBWRN
	SUBI R@0,LOW(@2)
	SBCI R@1,HIGH(@2)
	.ENDM

	.MACRO __SUBWRR
	SUB  R@0,R@2
	SBC  R@1,R@3
	.ENDM

	.MACRO __ANDWRN
	ANDI R@0,LOW(@2)
	ANDI R@1,HIGH(@2)
	.ENDM

	.MACRO __ANDWRR
	AND  R@0,R@2
	AND  R@1,R@3
	.ENDM

	.MACRO __ORWRN
	ORI  R@0,LOW(@2)
	ORI  R@1,HIGH(@2)
	.ENDM

	.MACRO __ORWRR
	OR   R@0,R@2
	OR   R@1,R@3
	.ENDM

	.MACRO __EORWRR
	EOR  R@0,R@2
	EOR  R@1,R@3
	.ENDM

	.MACRO __GETWRS
	LDD  R@0,Y+@2
	LDD  R@1,Y+@2+1
	.ENDM

	.MACRO __PUTBSR
	STD  Y+@1,R@0
	.ENDM

	.MACRO __PUTWSR
	STD  Y+@2,R@0
	STD  Y+@2+1,R@1
	.ENDM

	.MACRO __MOVEWRR
	MOV  R@0,R@2
	MOV  R@1,R@3
	.ENDM

	.MACRO __INWR
	IN   R@0,@2
	IN   R@1,@2+1
	.ENDM

	.MACRO __OUTWR
	OUT  @2+1,R@1
	OUT  @2,R@0
	.ENDM

	.MACRO __CALL1MN
	LDS  R30,@0+(@1)
	LDS  R31,@0+(@1)+1
	ICALL
	.ENDM

	.MACRO __CALL1FN
	LDI  R30,LOW(2*@0+(@1))
	LDI  R31,HIGH(2*@0+(@1))
	RCALL __GETW1PF
	ICALL
	.ENDM

	.MACRO __CALL2EN
	PUSH R26
	PUSH R27
	LDI  R26,LOW(@0+(@1))
	LDI  R27,HIGH(@0+(@1))
	RCALL __EEPROMRDW
	POP  R27
	POP  R26
	ICALL
	.ENDM

	.MACRO __CALL2EX
	SUBI R26,LOW(-@0)
	SBCI R27,HIGH(-@0)
	RCALL __EEPROMRDD
	ICALL
	.ENDM

	.MACRO __GETW1STACK
	IN   R30,SPL
	IN   R31,SPH
	ADIW R30,@0+1
	LD   R0,Z+
	LD   R31,Z
	MOV  R30,R0
	.ENDM

	.MACRO __GETD1STACK
	IN   R30,SPL
	IN   R31,SPH
	ADIW R30,@0+1
	LD   R0,Z+
	LD   R1,Z+
	LD   R22,Z
	MOV  R30,R0
	MOV  R31,R1
	.ENDM

	.MACRO __NBST
	BST  R@0,@1
	IN   R30,SREG
	LDI  R31,0x40
	EOR  R30,R31
	OUT  SREG,R30
	.ENDM


	.MACRO __PUTB1SN
	LDD  R26,Y+@0
	SUBI R26,-@1
	ST   X,R30
	.ENDM

	.MACRO __PUTW1SN
	LDD  R26,Y+@0
	SUBI R26,-@1
	ST   X+,R30
	ST   X,R31
	.ENDM

	.MACRO __PUTD1SN
	LDD  R26,Y+@0
	SUBI R26,-@1
	RCALL __PUTDP1
	.ENDM

	.MACRO __PUTB1SNS
	LDD  R26,Y+@0
	SUBI R26,-@1
	ST   X,R30
	.ENDM

	.MACRO __PUTW1SNS
	LDD  R26,Y+@0
	SUBI R26,-@1
	ST   X+,R30
	ST   X,R31
	.ENDM

	.MACRO __PUTD1SNS
	LDD  R26,Y+@0
	SUBI R26,-@1
	RCALL __PUTDP1
	.ENDM

	.MACRO __PUTB1RN
	MOV  R26,R@0
	SUBI R26,-@1
	ST   X,R30
	.ENDM

	.MACRO __PUTW1RN
	MOV  R26,R@0
	SUBI R26,-@1
	ST   X+,R30
	ST   X,R31
	.ENDM

	.MACRO __PUTD1RN
	MOV  R26,R@0
	SUBI R26,-@1
	RCALL __PUTDP1
	.ENDM

	.MACRO __PUTB1RNS
	MOV  R26,R@0
	SUBI R26,-@1
	ST   X,R30
	.ENDM

	.MACRO __PUTW1RNS
	MOV  R26,R@0
	SUBI R26,-@1
	ST   X+,R30
	ST   X,R31
	.ENDM

	.MACRO __PUTD1RNS
	MOV  R26,R@0
	SUBI R26,-@1
	RCALL __PUTDP1
	.ENDM

	.MACRO __PUTB1PMN
	LDS  R26,@0
	SUBI R26,-@1
	ST   X,R30
	.ENDM

	.MACRO __PUTW1PMN
	LDS  R26,@0
	SUBI R26,-@1
	ST   X+,R30
	ST   X,R31
	.ENDM

	.MACRO __PUTD1PMN
	LDS  R26,@0
	SUBI R26,-@1
	RCALL __PUTDP1
	.ENDM

	.MACRO __PUTB1PMNS
	LDS  R26,@0
	SUBI R26,-@1
	ST   X,R30
	.ENDM

	.MACRO __PUTW1PMNS
	LDS  R26,@0
	SUBI R26,-@1
	ST   X+,R30
	ST   X,R31
	.ENDM

	.MACRO __PUTD1PMNS
	LDS  R26,@0
	SUBI R26,-@1
	RCALL __PUTDP1
	.ENDM

	.MACRO __GETB1SX
	MOV  R30,R28
	MOV  R31,R29
	SUBI R30,LOW(-@0)
	SBCI R31,HIGH(-@0)
	LD   R30,Z
	.ENDM

	.MACRO __GETB1HSX
	MOV  R30,R28
	MOV  R31,R29
	SUBI R30,LOW(-@0)
	SBCI R31,HIGH(-@0)
	LD   R31,Z
	.ENDM

	.MACRO __GETW1SX
	MOV  R30,R28
	MOV  R31,R29
	SUBI R30,LOW(-@0)
	SBCI R31,HIGH(-@0)
	LD   R0,Z+
	LD   R31,Z
	MOV  R30,R0
	.ENDM

	.MACRO __GETD1SX
	MOV  R30,R28
	MOV  R31,R29
	SUBI R30,LOW(-@0)
	SBCI R31,HIGH(-@0)
	LD   R0,Z+
	LD   R1,Z+
	LD   R22,Z+
	LD   R23,Z
	MOV  R30,R0
	MOV  R31,R1
	.ENDM

	.MACRO __GETB2SX
	MOV  R26,R28
	MOV  R27,R29
	SUBI R26,LOW(-@0)
	SBCI R27,HIGH(-@0)
	LD   R26,X
	.ENDM

	.MACRO __GETW2SX
	MOV  R26,R28
	MOV  R27,R29
	SUBI R26,LOW(-@0)
	SBCI R27,HIGH(-@0)
	LD   R0,X+
	LD   R27,X
	MOV  R26,R0
	.ENDM

	.MACRO __GETD2SX
	MOV  R26,R28
	MOV  R27,R29
	SUBI R26,LOW(-@0)
	SBCI R27,HIGH(-@0)
	LD   R0,X+
	LD   R1,X+
	LD   R24,X+
	LD   R25,X
	MOV  R26,R0
	MOV  R27,R1
	.ENDM

	.MACRO __GETBRSX
	MOV  R30,R28
	MOV  R31,R29
	SUBI R30,LOW(-@1)
	SBCI R31,HIGH(-@1)
	LD   R@0,Z
	.ENDM

	.MACRO __GETWRSX
	MOV  R30,R28
	MOV  R31,R29
	SUBI R30,LOW(-@2)
	SBCI R31,HIGH(-@2)
	LD   R@0,Z+
	LD   R@1,Z
	.ENDM

	.MACRO __GETBRSX2
	MOV  R26,R28
	MOV  R27,R29
	SUBI R26,LOW(-@1)
	SBCI R27,HIGH(-@1)
	LD   R@0,X
	.ENDM

	.MACRO __GETWRSX2
	MOV  R26,R28
	MOV  R27,R29
	SUBI R26,LOW(-@2)
	SBCI R27,HIGH(-@2)
	LD   R@0,X+
	LD   R@1,X
	.ENDM

	.MACRO __LSLW8SX
	MOV  R30,R28
	MOV  R31,R29
	SUBI R30,LOW(-@0)
	SBCI R31,HIGH(-@0)
	LD   R31,Z
	CLR  R30
	.ENDM

	.MACRO __PUTB1SX
	MOV  R26,R28
	MOV  R27,R29
	SUBI R26,LOW(-@0)
	SBCI R27,HIGH(-@0)
	ST   X,R30
	.ENDM

	.MACRO __PUTW1SX
	MOV  R26,R28
	MOV  R27,R29
	SUBI R26,LOW(-@0)
	SBCI R27,HIGH(-@0)
	ST   X+,R30
	ST   X,R31
	.ENDM

	.MACRO __PUTD1SX
	MOV  R26,R28
	MOV  R27,R29
	SUBI R26,LOW(-@0)
	SBCI R27,HIGH(-@0)
	ST   X+,R30
	ST   X+,R31
	ST   X+,R22
	ST   X,R23
	.ENDM

	.MACRO __CLRW1SX
	MOV  R26,R28
	MOV  R27,R29
	SUBI R26,LOW(-@0)
	SBCI R27,HIGH(-@0)
	ST   X+,R30
	ST   X,R30
	.ENDM

	.MACRO __CLRD1SX
	MOV  R26,R28
	MOV  R27,R29
	SUBI R26,LOW(-@0)
	SBCI R27,HIGH(-@0)
	ST   X+,R30
	ST   X+,R30
	ST   X+,R30
	ST   X,R30
	.ENDM

	.MACRO __PUTB2SX
	MOV  R30,R28
	MOV  R31,R29
	SUBI R30,LOW(-@0)
	SBCI R31,HIGH(-@0)
	ST   Z,R26
	.ENDM

	.MACRO __PUTW2SX
	MOV  R30,R28
	MOV  R31,R29
	SUBI R30,LOW(-@0)
	SBCI R31,HIGH(-@0)
	ST   Z+,R26
	ST   Z,R27
	.ENDM

	.MACRO __PUTD2SX
	MOV  R30,R28
	MOV  R31,R29
	SUBI R30,LOW(-@0)
	SBCI R31,HIGH(-@0)
	ST   Z+,R26
	ST   Z+,R27
	ST   Z+,R24
	ST   Z,R25
	.ENDM

	.MACRO __PUTBSRX
	MOV  R30,R28
	MOV  R31,R29
	SUBI R30,LOW(-@1)
	SBCI R31,HIGH(-@1)
	ST   Z,R@0
	.ENDM

	.MACRO __PUTWSRX
	MOV  R30,R28
	MOV  R31,R29
	SUBI R30,LOW(-@2)
	SBCI R31,HIGH(-@2)
	ST   Z+,R@0
	ST   Z,R@1
	.ENDM

	.MACRO __PUTB1SNX
	MOV  R26,R28
	MOV  R27,R29
	SUBI R26,LOW(-@0)
	SBCI R27,HIGH(-@0)
	LD   R0,X+
	LD   R27,X
	MOV  R26,R0
	SUBI R26,LOW(-@1)
	SBCI R27,HIGH(-@1)
	ST   X,R30
	.ENDM

	.MACRO __PUTW1SNX
	MOV  R26,R28
	MOV  R27,R29
	SUBI R26,LOW(-@0)
	SBCI R27,HIGH(-@0)
	LD   R0,X+
	LD   R27,X
	MOV  R26,R0
	SUBI R26,LOW(-@1)
	SBCI R27,HIGH(-@1)
	ST   X+,R30
	ST   X,R31
	.ENDM

	.MACRO __PUTD1SNX
	MOV  R26,R28
	MOV  R27,R29
	SUBI R26,LOW(-@0)
	SBCI R27,HIGH(-@0)
	LD   R0,X+
	LD   R27,X
	MOV  R26,R0
	SUBI R26,LOW(-@1)
	SBCI R27,HIGH(-@1)
	ST   X+,R30
	ST   X+,R31
	ST   X+,R22
	ST   X,R23
	.ENDM

;NAME DEFINITIONS FOR GLOBAL VARIABLES ALLOCATED TO REGISTERS
	.DEF __lcd_x=R4
	.DEF __lcd_y=R5
	.DEF __lcd_maxx=R6

	.CSEG
	.ORG 0x00

;START OF CODE MARKER
__START_OF_CODE:

;INTERRUPT VECTORS
	RJMP __RESET
	RJMP 0x00
	RJMP 0x00
	RJMP 0x00
	RJMP 0x00
	RJMP 0x00
	RJMP 0x00
	RJMP 0x00
	RJMP 0x00
	RJMP 0x00

_0x3:
	.DB  0x80,0xC0
_0xA:
	.DB  0x8
_0x0:
	.DB  0x48,0x65,0x6C,0x6C,0x6F,0x20,0x64,0x72
	.DB  0x69,0x76,0x65,0x32,0x2E,0x72,0x75,0x21
	.DB  0x0,0x74,0x65,0x73,0x74,0x20,0x4C,0x43
	.DB  0x44,0x31,0x36,0x30,0x32,0x20,0x69,0x32
	.DB  0x63,0x0

__GLOBAL_INI_TBL:
	.DW  0x02
	.DW  __base_y_G000
	.DW  _0x3*2

	.DW  0x01
	.DW  _backlight_S0000001000
	.DW  _0xA*2

_0xFFFFFFFF:
	.DW  0

#define __GLOBAL_INI_TBL_PRESENT 1

__RESET:
	CLI
	CLR  R30
	OUT  EECR,R30
	OUT  MCUCR,R30

;CLEAR R2-R14
	LDI  R24,(14-2)+1
	LDI  R26,2
__CLEAR_REG:
	ST   X+,R30
	DEC  R24
	BRNE __CLEAR_REG

;CLEAR SRAM
	LDI  R24,__CLEAR_SRAM_SIZE
	LDI  R26,__SRAM_START
__CLEAR_SRAM:
	ST   X+,R30
	DEC  R24
	BRNE __CLEAR_SRAM

;GLOBAL VARIABLES INITIALIZATION
	LDI  R30,LOW(__GLOBAL_INI_TBL*2)
	LDI  R31,HIGH(__GLOBAL_INI_TBL*2)
__GLOBAL_INI_NEXT:
	LPM
	ADIW R30,1
	MOV  R24,R0
	LPM
	ADIW R30,1
	MOV  R25,R0
	SBIW R24,0
	BREQ __GLOBAL_INI_END
	LPM
	ADIW R30,1
	MOV  R26,R0
	LPM
	ADIW R30,1
	MOV  R27,R0
	LPM
	ADIW R30,1
	MOV  R1,R0
	LPM
	ADIW R30,1
	MOV  R22,R30
	MOV  R23,R31
	MOV  R31,R0
	MOV  R30,R1
__GLOBAL_INI_LOOP:
	LPM
	ADIW R30,1
	ST   X+,R0
	SBIW R24,1
	BRNE __GLOBAL_INI_LOOP
	MOV  R30,R22
	MOV  R31,R23
	RJMP __GLOBAL_INI_NEXT
__GLOBAL_INI_END:

;HARDWARE STACK POINTER INITIALIZATION
	LDI  R30,LOW(__SRAM_END-__HEAP_SIZE)
	OUT  SPL,R30

;DATA STACK POINTER INITIALIZATION
	LDI  R28,LOW(__SRAM_START+__DSTACK_SIZE)

	RJMP _main

	.ESEG
	.ORG 0

	.DSEG
	.ORG 0x80

	.CSEG
;/*******************************************************
;This program was created by the
;CodeWizardAVR V3.12 Advanced
;Automatic Program Generator
;© Copyright 1998-2014 Pavel Haiduc, HP InfoTech s.r.l.
;http://www.hpinfotech.com
;
;Project :
;Version :
;Date    : 03.12.2016
;Author  : shpala
;Company :
;Comments:
;
;
;Chip type               : ATtiny13A
;AVR Core Clock frequency: 1,200000 MHz
;Memory model            : Tiny
;External RAM size       : 0
;Data Stack size         : 16
;*******************************************************/
;
;#define PCF8574A            0x3F
;
;#include <tiny13a.h>
	#ifndef __SLEEP_DEFINED__
	#define __SLEEP_DEFINED__
	.EQU __se_bit=0x20
	.EQU __sm_mask=0x18
	.EQU __sm_adc_noise_red=0x08
	.EQU __sm_powerdown=0x10
	.SET power_ctrl_reg=mcucr
	#endif
;#include <stdint.h>
;#include <delay.h>
;#include <i2c.h>
;
;// Declare your global variables here
;
;static unsigned char _base_y[4]={0x80,0xc0};

	.DSEG
;unsigned char _lcd_x,_lcd_y,_lcd_maxx;
;
;uint8_t I2C_WRITESEQ(uint8_t slave, uint8_t *seq, uint8_t n)
; 0000 0024 {

	.CSEG
_I2C_WRITESEQ:
; .FSTART _I2C_WRITESEQ
; 0000 0025     uint8_t ret = 1;
; 0000 0026     if (i2c_start() && i2c_write(slave << 1)) {
	ST   -Y,R26
	ST   -Y,R16
;	slave -> Y+3
;	*seq -> Y+2
;	n -> Y+1
;	ret -> R16
	LDI  R16,1
	RCALL _i2c_start
	CPI  R30,0
	BREQ _0x5
	LDD  R30,Y+3
	LSL  R30
	MOV  R26,R30
	RCALL _i2c_write
	CPI  R30,0
	BRNE _0x6
_0x5:
	RJMP _0x4
_0x6:
; 0000 0027         uint8_t i;
; 0000 0028         for (i = 0; i < n; i++)
	SBIW R28,1
;	slave -> Y+4
;	*seq -> Y+3
;	n -> Y+2
;	i -> Y+0
	LDI  R30,LOW(0)
	ST   Y,R30
_0x8:
	LDD  R30,Y+2
	LD   R26,Y
	CP   R26,R30
	BRSH _0x9
; 0000 0029             i2c_write(seq[i]);
	LD   R30,Y
	LDD  R26,Y+3
	ADD  R26,R30
	LD   R26,X
	RCALL _i2c_write
	LD   R30,Y
	SUBI R30,-LOW(1)
	ST   Y,R30
	RJMP _0x8
_0x9:
; 0000 002A ret = 0;
	LDI  R16,LOW(0)
; 0000 002B     }
	ADIW R28,1
; 0000 002C     i2c_stop();
_0x4:
	RCALL _i2c_stop
; 0000 002D     return ret;
	MOV  R30,R16
	LDD  R16,Y+0
	ADIW R28,4
	RET
; 0000 002E }
; .FEND
;
;static unsigned char wr_lcd_mode(char c, char mode)
; 0000 0031 {
_wr_lcd_mode_G000:
; .FSTART _wr_lcd_mode_G000
; 0000 0032     char ret = 1;
; 0000 0033     char seq[5];
; 0000 0034     static char backlight = 8;

	.DSEG

	.CSEG
; 0000 0035     if (mode == 8) {
	ST   -Y,R26
	SBIW R28,5
	ST   -Y,R16
;	c -> Y+7
;	mode -> Y+6
;	ret -> R16
;	seq -> Y+1
	LDI  R16,1
	LDD  R26,Y+6
	CPI  R26,LOW(0x8)
	BRNE _0xB
; 0000 0036         backlight = (c != 0) ? 8 : 0;
	LDD  R26,Y+7
	CPI  R26,LOW(0x0)
	BREQ _0xC
	LDI  R30,LOW(8)
	RJMP _0xD
_0xC:
	LDI  R30,LOW(0)
_0xD:
	STS  _backlight_S0000001000,R30
; 0000 0037         return I2C_WRITESEQ(PCF8574A, &backlight, 1);
	LDI  R30,LOW(63)
	ST   -Y,R30
	LDI  R30,LOW(_backlight_S0000001000)
	ST   -Y,R30
	LDI  R26,LOW(1)
	RCALL _I2C_WRITESEQ
	RJMP _0x2000002
; 0000 0038     }
; 0000 0039     mode |= backlight;
_0xB:
	LDS  R30,_backlight_S0000001000
	LDD  R26,Y+6
	OR   R30,R26
	STD  Y+6,R30
; 0000 003A     seq[0] = mode;                      // EN=0, RW=0, RS=mode
	STD  Y+1,R30
; 0000 003B     seq[1] = (c & 0xF0) | mode | 4;     // EN=1, RW=0, RS=mode
	LDD  R30,Y+7
	ANDI R30,LOW(0xF0)
	LDD  R26,Y+6
	OR   R30,R26
	ORI  R30,4
	STD  Y+2,R30
; 0000 003C     seq[2] = seq[1] & ~4;               // EN=0, RW=0, RS=mode
	ANDI R30,0xFB
	STD  Y+3,R30
; 0000 003D     seq[3] = (c << 4) | mode | 4;       // EN=1, RW=0, RS=mode
	LDD  R30,Y+7
	SWAP R30
	ANDI R30,0xF0
	OR   R30,R26
	ORI  R30,4
	STD  Y+4,R30
; 0000 003E     seq[4] = seq[3] & ~4;               // EN=0, RW=0, RS=mode
	ANDI R30,0xFB
	STD  Y+5,R30
; 0000 003F     ret = I2C_WRITESEQ(PCF8574A, seq, 5);
	LDI  R30,LOW(63)
	ST   -Y,R30
	MOV  R30,R28
	SUBI R30,-(2)
	ST   -Y,R30
	LDI  R26,LOW(5)
	RCALL _I2C_WRITESEQ
	MOV  R16,R30
; 0000 0040     if (!(mode & 1) && c <= 2)
	LDD  R30,Y+6
	ANDI R30,LOW(0x1)
	BRNE _0x10
	LDD  R26,Y+7
	CPI  R26,LOW(0x3)
	BRLO _0x11
_0x10:
	RJMP _0xF
_0x11:
; 0000 0041         delay_ms(2);                    // CLS and HOME
	LDI  R26,LOW(2)
	LDI  R27,0
	RCALL _delay_ms
; 0000 0042     return ret;
_0xF:
	MOV  R30,R16
	RJMP _0x2000002
; 0000 0043 }
; .FEND
;
;void lcd_gotoxy(unsigned char x, unsigned char y)
; 0000 0046 {
_lcd_gotoxy:
; .FSTART _lcd_gotoxy
; 0000 0047     wr_lcd_mode(0x80 | (_base_y[y] + x), 0);   //.kbv now use +
	ST   -Y,R26
;	x -> Y+1
;	y -> Y+0
	LD   R30,Y
	SUBI R30,-LOW(__base_y_G000)
	LD   R30,Z
	LDD  R26,Y+1
	ADD  R30,R26
	ORI  R30,0x80
	ST   -Y,R30
	LDI  R26,LOW(0)
	RCALL _wr_lcd_mode_G000
; 0000 0048     _lcd_x=x;
	LDD  R4,Y+1
; 0000 0049     _lcd_y=y;
	LDD  R5,Y+0
; 0000 004A }
	RJMP _0x2000001
; .FEND
;
;void lcd_init(unsigned char lcd_columns)
; 0000 004D {
_lcd_init:
; .FSTART _lcd_init
; 0000 004E     char i;
; 0000 004F     // High-Nibble von Byte 8 = Display Control:
; 0000 0050     // 1DCB****  D: Disp on/off; C: Cursor on/off  B: blink on/off
; 0000 0051     char init_sequenz[] = { 0x33, 0x32, 0x28, 0x0C, 0x06, 0x01 };
; 0000 0052     _lcd_maxx = lcd_columns;
	ST   -Y,R26
	SBIW R28,6
	LDI  R30,LOW(51)
	ST   Y,R30
	LDI  R30,LOW(50)
	STD  Y+1,R30
	LDI  R30,LOW(40)
	STD  Y+2,R30
	LDI  R30,LOW(12)
	STD  Y+3,R30
	LDI  R30,LOW(6)
	STD  Y+4,R30
	LDI  R30,LOW(1)
	STD  Y+5,R30
	ST   -Y,R16
;	lcd_columns -> Y+7
;	i -> R16
;	init_sequenz -> Y+1
	LDD  R6,Y+7
; 0000 0053     _base_y[2] = _base_y[0] + _lcd_maxx;
	MOV  R30,R6
	LDS  R26,__base_y_G000
	ADD  R30,R26
	__PUTB1MN __base_y_G000,2
; 0000 0054     _base_y[3] = _base_y[1] + _lcd_maxx;
	__GETB1MN __base_y_G000,1
	ADD  R30,R6
	__PUTB1MN __base_y_G000,3
; 0000 0055     i2c_init();
	RCALL _i2c_init
; 0000 0056     delay_ms(30);               // 30 ms Delay nach power-up
	LDI  R26,LOW(30)
	LDI  R27,0
	RCALL _delay_ms
; 0000 0057     for (i = 0; i < sizeof(init_sequenz); i++) {
	LDI  R16,LOW(0)
_0x13:
	CPI  R16,6
	BRSH _0x14
; 0000 0058         wr_lcd_mode(init_sequenz[i], 0);
	MOV  R26,R28
	SUBI R26,-(1)
	ADD  R26,R16
	LD   R30,X
	ST   -Y,R30
	LDI  R26,LOW(0)
	RCALL _wr_lcd_mode_G000
; 0000 0059         delay_ms(5);
	LDI  R26,LOW(5)
	LDI  R27,0
	RCALL _delay_ms
; 0000 005A     }
	SUBI R16,-1
	RJMP _0x13
_0x14:
; 0000 005B }
_0x2000002:
	LDD  R16,Y+0
	ADIW R28,8
	RET
; .FEND
;
;void lcd_putchar(char c)
; 0000 005E {
_lcd_putchar:
; .FSTART _lcd_putchar
; 0000 005F     if (_lcd_x>=_lcd_maxx || c == '\n')
	ST   -Y,R26
;	c -> Y+0
	CP   R4,R6
	BRSH _0x16
	LD   R26,Y
	CPI  R26,LOW(0xA)
	BRNE _0x15
_0x16:
; 0000 0060     {
; 0000 0061         lcd_gotoxy(0,++_lcd_y);
	LDI  R30,LOW(0)
	ST   -Y,R30
	INC  R5
	MOV  R26,R5
	RCALL _lcd_gotoxy
; 0000 0062     }
; 0000 0063     if (c != '\n') {
_0x15:
	LD   R26,Y
	CPI  R26,LOW(0xA)
	BREQ _0x18
; 0000 0064         ++_lcd_x;
	INC  R4
; 0000 0065         wr_lcd_mode(c, 1);
	LD   R30,Y
	ST   -Y,R30
	LDI  R26,LOW(1)
	RCALL _wr_lcd_mode_G000
; 0000 0066     }
; 0000 0067 }
_0x18:
	ADIW R28,1
	RET
; .FEND
;
;void lcd_puts(char flash *str)
; 0000 006A {
_lcd_puts:
; .FSTART _lcd_puts
; 0000 006B     while (*str) lcd_putchar(*str++);
	ST   -Y,R27
	ST   -Y,R26
;	*str -> Y+0
_0x19:
	LD   R30,Y
	LDD  R31,Y+1
	LPM
	MOV  R30,R0
	CPI  R30,0
	BREQ _0x1B
	LD   R30,Y
	LDD  R31,Y+1
	ADIW R30,1
	ST   Y,R30
	STD  Y+1,R31
	SBIW R30,1
	LPM
	MOV  R26,R0
	RCALL _lcd_putchar
	RJMP _0x19
_0x1B:
; 0000 006C }
_0x2000001:
	ADIW R28,2
	RET
; .FEND
;
;void main(void)
; 0000 006F {
_main:
; .FSTART _main
; 0000 0070 // Declare your local variables here
; 0000 0071 
; 0000 0072 // Crystal Oscillator division factor: 1
; 0000 0073 #pragma optsize-
; 0000 0074 CLKPR=(1<<CLKPCE);
	LDI  R30,LOW(128)
	OUT  0x26,R30
; 0000 0075 CLKPR=(0<<CLKPCE) | (0<<CLKPS3) | (0<<CLKPS2) | (0<<CLKPS1) | (0<<CLKPS0);
	LDI  R30,LOW(0)
	OUT  0x26,R30
; 0000 0076 #ifdef _OPTIMIZE_SIZE_
; 0000 0077 #pragma optsize+
; 0000 0078 #endif
; 0000 0079 
; 0000 007A // Input/Output Ports initialization
; 0000 007B // Port B initialization
; 0000 007C // Function: Bit5=In Bit4=In Bit3=In Bit2=In Bit1=In Bit0=In
; 0000 007D DDRB=(0<<DDB5) | (0<<DDB4) | (0<<DDB3) | (0<<DDB2) | (0<<DDB1) | (0<<DDB0);
	OUT  0x17,R30
; 0000 007E // State: Bit5=T Bit4=T Bit3=T Bit2=T Bit1=T Bit0=T
; 0000 007F PORTB=(0<<PORTB5) | (0<<PORTB4) | (0<<PORTB3) | (0<<PORTB2) | (0<<PORTB1) | (0<<PORTB0);
	OUT  0x18,R30
; 0000 0080 
; 0000 0081 // Bit-Banged I2C Bus initialization
; 0000 0082 // I2C Port: PORTB
; 0000 0083 // I2C SDA bit: 0
; 0000 0084 // I2C SCL bit: 1
; 0000 0085 // Bit Rate: 100 kHz
; 0000 0086 // Note: I2C settings are specified in the
; 0000 0087 // Project|Configure|C Compiler|Libraries|I2C menu.
; 0000 0088 i2c_init();
	RCALL _i2c_init
; 0000 0089 
; 0000 008A lcd_init(16);
	LDI  R26,LOW(16)
	RCALL _lcd_init
; 0000 008B 
; 0000 008C while (1)
_0x1C:
; 0000 008D {
; 0000 008E     lcd_gotoxy(0,0);
	LDI  R30,LOW(0)
	ST   -Y,R30
	LDI  R26,LOW(0)
	RCALL _lcd_gotoxy
; 0000 008F 
; 0000 0090     lcd_puts("Hello drive2.ru!");
	__POINTW2FN _0x0,0
	RCALL _lcd_puts
; 0000 0091     lcd_gotoxy(0,1);
	LDI  R30,LOW(0)
	ST   -Y,R30
	LDI  R26,LOW(1)
	RCALL _lcd_gotoxy
; 0000 0092     lcd_puts("test LCD1602 i2c");
	__POINTW2FN _0x0,17
	RCALL _lcd_puts
; 0000 0093 }
	RJMP _0x1C
; 0000 0094 }
_0x1F:
	RJMP _0x1F
; .FEND

	.DSEG
__base_y_G000:
	.BYTE 0x4
_backlight_S0000001000:
	.BYTE 0x1

	.CSEG

	.CSEG
	.equ __sda_bit=0
	.equ __scl_bit=1
	.equ __i2c_port=0x18 ;PORTB
	.equ __i2c_dir=__i2c_port-1
	.equ __i2c_pin=__i2c_port-2

_i2c_init:
	cbi  __i2c_port,__scl_bit
	cbi  __i2c_port,__sda_bit
	sbi  __i2c_dir,__scl_bit
	cbi  __i2c_dir,__sda_bit
	rjmp __i2c_delay2
_i2c_start:
	cbi  __i2c_dir,__sda_bit
	cbi  __i2c_dir,__scl_bit
	clr  r30
	nop
	sbis __i2c_pin,__sda_bit
	ret
	sbis __i2c_pin,__scl_bit
	ret
	rcall __i2c_delay1
	sbi  __i2c_dir,__sda_bit
	rcall __i2c_delay1
	sbi  __i2c_dir,__scl_bit
	ldi  r30,1
__i2c_delay1:
	ldi  r22,2
	rjmp __i2c_delay2l
_i2c_stop:
	sbi  __i2c_dir,__sda_bit
	sbi  __i2c_dir,__scl_bit
	rcall __i2c_delay2
	cbi  __i2c_dir,__scl_bit
	rcall __i2c_delay1
	cbi  __i2c_dir,__sda_bit
__i2c_delay2:
	ldi  r22,4
__i2c_delay2l:
	dec  r22
	brne __i2c_delay2l
	ret
_i2c_read:
	ldi  r23,8
__i2c_read0:
	cbi  __i2c_dir,__scl_bit
	rcall __i2c_delay1
__i2c_read3:
	sbis __i2c_pin,__scl_bit
	rjmp __i2c_read3
	rcall __i2c_delay1
	clc
	sbic __i2c_pin,__sda_bit
	sec
	sbi  __i2c_dir,__scl_bit
	rcall __i2c_delay2
	rol  r30
	dec  r23
	brne __i2c_read0
	mov  r23,r26
	tst  r23
	brne __i2c_read1
	cbi  __i2c_dir,__sda_bit
	rjmp __i2c_read2
__i2c_read1:
	sbi  __i2c_dir,__sda_bit
__i2c_read2:
	rcall __i2c_delay1
	cbi  __i2c_dir,__scl_bit
	rcall __i2c_delay2
	sbi  __i2c_dir,__scl_bit
	rcall __i2c_delay1
	cbi  __i2c_dir,__sda_bit
	rjmp __i2c_delay1

_i2c_write:
	ldi  r23,8
__i2c_write0:
	lsl  r26
	brcc __i2c_write1
	cbi  __i2c_dir,__sda_bit
	rjmp __i2c_write2
__i2c_write1:
	sbi  __i2c_dir,__sda_bit
__i2c_write2:
	rcall __i2c_delay2
	cbi  __i2c_dir,__scl_bit
	rcall __i2c_delay1
__i2c_write3:
	sbis __i2c_pin,__scl_bit
	rjmp __i2c_write3
	rcall __i2c_delay1
	sbi  __i2c_dir,__scl_bit
	dec  r23
	brne __i2c_write0
	cbi  __i2c_dir,__sda_bit
	rcall __i2c_delay1
	cbi  __i2c_dir,__scl_bit
	rcall __i2c_delay2
	ldi  r30,1
	sbic __i2c_pin,__sda_bit
	clr  r30
	sbi  __i2c_dir,__scl_bit
	rjmp __i2c_delay1

_delay_ms:
	adiw r26,0
	breq __delay_ms1
__delay_ms0:
	__DELAY_USW 0x12C
	wdr
	sbiw r26,1
	brne __delay_ms0
__delay_ms1:
	ret

;END OF CODE MARKER
__END_OF_CODE:
