Archive member included to satisfy reference by file (symbol)

E:\VSCode\ArduinoProjects\Datasheets\CH32\CH32V307\CH32V307_EVT\Examples\ETH\NetLib\libwchnet.a(eth_api.o)
                              ./NetLib/eth_driver.o (WCHNET_PeriodicHandle)
E:\VSCode\ArduinoProjects\Datasheets\CH32\CH32V307\CH32V307_EVT\Examples\ETH\NetLib\libwchnet.a(ipcheck.o)
                              E:\VSCode\ArduinoProjects\Datasheets\CH32\CH32V307\CH32V307_EVT\Examples\ETH\NetLib\libwchnet.a(eth_api.o) (IPCheckParaInit)
E:\VSCode\ArduinoProjects\Datasheets\CH32\CH32V307\CH32V307_EVT\Examples\ETH\NetLib\libwchnet.a(net_dhcp.o)
                              E:\VSCode\ArduinoProjects\Datasheets\CH32\CH32V307\CH32V307_EVT\Examples\ETH\NetLib\libwchnet.a(eth_api.o) (DHCPCtrl)
E:\VSCode\ArduinoProjects\Datasheets\CH32\CH32V307\CH32V307_EVT\Examples\ETH\NetLib\libwchnet.a(net_dns.o)
                              E:\VSCode\ArduinoProjects\Datasheets\CH32\CH32V307\CH32V307_EVT\Examples\ETH\NetLib\libwchnet.a(eth_api.o) (DNSInf)
E:\VSCode\ArduinoProjects\Datasheets\CH32\CH32V307\CH32V307_EVT\Examples\ETH\NetLib\libwchnet.a(socket.o)
                              E:\VSCode\ArduinoProjects\Datasheets\CH32\CH32V307\CH32V307_EVT\Examples\ETH\NetLib\libwchnet.a(net_dhcp.o) (ErrorEncode)
E:\VSCode\ArduinoProjects\Datasheets\CH32\CH32V307\CH32V307_EVT\Examples\ETH\NetLib\libwchnet.a(etharp.o)
                              E:\VSCode\ArduinoProjects\Datasheets\CH32\CH32V307\CH32V307_EVT\Examples\ETH\NetLib\libwchnet.a(eth_api.o) (etharp_tmr)
E:\VSCode\ArduinoProjects\Datasheets\CH32\CH32V307\CH32V307_EVT\Examples\ETH\NetLib\libwchnet.a(ethernetif.o)
                              E:\VSCode\ArduinoProjects\Datasheets\CH32\CH32V307\CH32V307_EVT\Examples\ETH\NetLib\libwchnet.a(eth_api.o) (ethernetif_input)
E:\VSCode\ArduinoProjects\Datasheets\CH32\CH32V307\CH32V307_EVT\Examples\ETH\NetLib\libwchnet.a(inet.o)
                              E:\VSCode\ArduinoProjects\Datasheets\CH32\CH32V307\CH32V307_EVT\Examples\ETH\NetLib\libwchnet.a(socket.o) (inet_ntoa)
E:\VSCode\ArduinoProjects\Datasheets\CH32\CH32V307\CH32V307_EVT\Examples\ETH\NetLib\libwchnet.a(ip.o)
                              E:\VSCode\ArduinoProjects\Datasheets\CH32\CH32V307\CH32V307_EVT\Examples\ETH\NetLib\libwchnet.a(etharp.o) (ip_input)
E:\VSCode\ArduinoProjects\Datasheets\CH32\CH32V307\CH32V307_EVT\Examples\ETH\NetLib\libwchnet.a(ip_addr.o)
                              E:\VSCode\ArduinoProjects\Datasheets\CH32\CH32V307\CH32V307_EVT\Examples\ETH\NetLib\libwchnet.a(socket.o) (ip_addr_isbroadcast)
E:\VSCode\ArduinoProjects\Datasheets\CH32\CH32V307\CH32V307_EVT\Examples\ETH\NetLib\libwchnet.a(ip_frag.o)
                              E:\VSCode\ArduinoProjects\Datasheets\CH32\CH32V307\CH32V307_EVT\Examples\ETH\NetLib\libwchnet.a(eth_api.o) (ip_reass_tmr)
E:\VSCode\ArduinoProjects\Datasheets\CH32\CH32V307\CH32V307_EVT\Examples\ETH\NetLib\libwchnet.a(dhcp.o)
                              E:\VSCode\ArduinoProjects\Datasheets\CH32\CH32V307\CH32V307_EVT\Examples\ETH\NetLib\libwchnet.a(net_dhcp.o) (dhcp_arp_reply)
E:\VSCode\ArduinoProjects\Datasheets\CH32\CH32V307\CH32V307_EVT\Examples\ETH\NetLib\libwchnet.a(dns.o)
                              E:\VSCode\ArduinoProjects\Datasheets\CH32\CH32V307\CH32V307_EVT\Examples\ETH\NetLib\libwchnet.a(dhcp.o) (dns_setserver)
E:\VSCode\ArduinoProjects\Datasheets\CH32\CH32V307\CH32V307_EVT\Examples\ETH\NetLib\libwchnet.a(init.o)
                              E:\VSCode\ArduinoProjects\Datasheets\CH32\CH32V307\CH32V307_EVT\Examples\ETH\NetLib\libwchnet.a(ethernetif.o) (lwip_init)
E:\VSCode\ArduinoProjects\Datasheets\CH32\CH32V307\CH32V307_EVT\Examples\ETH\NetLib\libwchnet.a(mem.o)
                              E:\VSCode\ArduinoProjects\Datasheets\CH32\CH32V307\CH32V307_EVT\Examples\ETH\NetLib\libwchnet.a(init.o) (mem_init)
E:\VSCode\ArduinoProjects\Datasheets\CH32\CH32V307\CH32V307_EVT\Examples\ETH\NetLib\libwchnet.a(memp.o)
                              E:\VSCode\ArduinoProjects\Datasheets\CH32\CH32V307\CH32V307_EVT\Examples\ETH\NetLib\libwchnet.a(init.o) (memp_init)
E:\VSCode\ArduinoProjects\Datasheets\CH32\CH32V307\CH32V307_EVT\Examples\ETH\NetLib\libwchnet.a(netif.o)
                              E:\VSCode\ArduinoProjects\Datasheets\CH32\CH32V307\CH32V307_EVT\Examples\ETH\NetLib\libwchnet.a(dhcp.o) (netif_set_ipaddr)
E:\VSCode\ArduinoProjects\Datasheets\CH32\CH32V307\CH32V307_EVT\Examples\ETH\NetLib\libwchnet.a(pbuf.o)
                              E:\VSCode\ArduinoProjects\Datasheets\CH32\CH32V307\CH32V307_EVT\Examples\ETH\NetLib\libwchnet.a(socket.o) (pbuf_header)
E:\VSCode\ArduinoProjects\Datasheets\CH32\CH32V307\CH32V307_EVT\Examples\ETH\NetLib\libwchnet.a(raw.o)
                              E:\VSCode\ArduinoProjects\Datasheets\CH32\CH32V307\CH32V307_EVT\Examples\ETH\NetLib\libwchnet.a(ip.o) (raw_input)
E:\VSCode\ArduinoProjects\Datasheets\CH32\CH32V307\CH32V307_EVT\Examples\ETH\NetLib\libwchnet.a(tcp.o)
                              E:\VSCode\ArduinoProjects\Datasheets\CH32\CH32V307\CH32V307_EVT\Examples\ETH\NetLib\libwchnet.a(socket.o) (tcp_bind)
E:\VSCode\ArduinoProjects\Datasheets\CH32\CH32V307\CH32V307_EVT\Examples\ETH\NetLib\libwchnet.a(tcp_in.o)
                              E:\VSCode\ArduinoProjects\Datasheets\CH32\CH32V307\CH32V307_EVT\Examples\ETH\NetLib\libwchnet.a(ip.o) (tcp_input)
E:\VSCode\ArduinoProjects\Datasheets\CH32\CH32V307\CH32V307_EVT\Examples\ETH\NetLib\libwchnet.a(tcp_out.o)
                              E:\VSCode\ArduinoProjects\Datasheets\CH32\CH32V307\CH32V307_EVT\Examples\ETH\NetLib\libwchnet.a(tcp.o) (tcp_enqueue)
E:\VSCode\ArduinoProjects\Datasheets\CH32\CH32V307\CH32V307_EVT\Examples\ETH\NetLib\libwchnet.a(udp.o)
                              E:\VSCode\ArduinoProjects\Datasheets\CH32\CH32V307\CH32V307_EVT\Examples\ETH\NetLib\libwchnet.a(ip.o) (udp_input)
E:\VSCode\ArduinoProjects\Datasheets\CH32\CH32V307\CH32V307_EVT\Examples\ETH\NetLib\libwchnet.a(icmp.o)
                              E:\VSCode\ArduinoProjects\Datasheets\CH32\CH32V307\CH32V307_EVT\Examples\ETH\NetLib\libwchnet.a(ip.o) (icmp_input)
E:\VSCode\ArduinoProjects\Datasheets\CH32\CH32V307\CH32V307_EVT\Examples\ETH\NetLib\libwchnet.a(inet_chksum.o)
                              E:\VSCode\ArduinoProjects\Datasheets\CH32\CH32V307\CH32V307_EVT\Examples\ETH\NetLib\libwchnet.a(tcp_in.o) (inet_chksum_pseudo)
e:/program/mounriver/mounriver_studio/toolchain/risc-v embedded gcc/bin/../lib/gcc/riscv-none-embed/8.2.0/../../../../riscv-none-embed/lib/rv32imacxw/ilp32\libprintf.a(wchprintf.o)
                              ./User/ch32v30x_it.o (printf)
e:/program/mounriver/mounriver_studio/toolchain/risc-v embedded gcc/bin/../lib/gcc/riscv-none-embed/8.2.0/rv32imacxw/ilp32\libgcc.a(save-restore.o)
                              ./HTTP/HTTPS.o (__riscv_save_12)
e:/program/mounriver/mounriver_studio/toolchain/risc-v embedded gcc/bin/../lib/gcc/riscv-none-embed/8.2.0/../../../../riscv-none-embed/lib/rv32imacxw/ilp32\libg_nano.a(lib_a-atoi.o)
                              ./HTTP/HTTPS.o (atoi)
e:/program/mounriver/mounriver_studio/toolchain/risc-v embedded gcc/bin/../lib/gcc/riscv-none-embed/8.2.0/../../../../riscv-none-embed/lib/rv32imacxw/ilp32\libg_nano.a(lib_a-memcpy.o)
                              ./User/main.o (memcpy)
e:/program/mounriver/mounriver_studio/toolchain/risc-v embedded gcc/bin/../lib/gcc/riscv-none-embed/8.2.0/../../../../riscv-none-embed/lib/rv32imacxw/ilp32\libg_nano.a(lib_a-memset.o)
                              ./User/main.o (memset)
e:/program/mounriver/mounriver_studio/toolchain/risc-v embedded gcc/bin/../lib/gcc/riscv-none-embed/8.2.0/../../../../riscv-none-embed/lib/rv32imacxw/ilp32\libg_nano.a(lib_a-strcmp.o)
                              ./HTTP/HTTPS.o (strcmp)
e:/program/mounriver/mounriver_studio/toolchain/risc-v embedded gcc/bin/../lib/gcc/riscv-none-embed/8.2.0/../../../../riscv-none-embed/lib/rv32imacxw/ilp32\libg_nano.a(lib_a-strcpy.o)
                              ./HTTP/HTTPS.o (strcpy)
e:/program/mounriver/mounriver_studio/toolchain/risc-v embedded gcc/bin/../lib/gcc/riscv-none-embed/8.2.0/../../../../riscv-none-embed/lib/rv32imacxw/ilp32\libg_nano.a(lib_a-strlen.o)
                              ./HTTP/HTTPS.o (strlen)
e:/program/mounriver/mounriver_studio/toolchain/risc-v embedded gcc/bin/../lib/gcc/riscv-none-embed/8.2.0/../../../../riscv-none-embed/lib/rv32imacxw/ilp32\libg_nano.a(lib_a-strstr.o)
                              ./HTTP/HTTPS.o (strstr)
e:/program/mounriver/mounriver_studio/toolchain/risc-v embedded gcc/bin/../lib/gcc/riscv-none-embed/8.2.0/../../../../riscv-none-embed/lib/rv32imacxw/ilp32\libg_nano.a(lib_a-strtok.o)
                              ./HTTP/HTTPS.o (strtok)
e:/program/mounriver/mounriver_studio/toolchain/risc-v embedded gcc/bin/../lib/gcc/riscv-none-embed/8.2.0/../../../../riscv-none-embed/lib/rv32imacxw/ilp32\libg_nano.a(lib_a-strtok_r.o)
                              e:/program/mounriver/mounriver_studio/toolchain/risc-v embedded gcc/bin/../lib/gcc/riscv-none-embed/8.2.0/../../../../riscv-none-embed/lib/rv32imacxw/ilp32\libg_nano.a(lib_a-strtok.o) (__strtok_r)
e:/program/mounriver/mounriver_studio/toolchain/risc-v embedded gcc/bin/../lib/gcc/riscv-none-embed/8.2.0/../../../../riscv-none-embed/lib/rv32imacxw/ilp32\libg_nano.a(lib_a-strtol.o)
                              e:/program/mounriver/mounriver_studio/toolchain/risc-v embedded gcc/bin/../lib/gcc/riscv-none-embed/8.2.0/../../../../riscv-none-embed/lib/rv32imacxw/ilp32\libg_nano.a(lib_a-atoi.o) (_strtol_r)
e:/program/mounriver/mounriver_studio/toolchain/risc-v embedded gcc/bin/../lib/gcc/riscv-none-embed/8.2.0/../../../../riscv-none-embed/lib/rv32imacxw/ilp32\libg_nano.a(lib_a-impure.o)
                              e:/program/mounriver/mounriver_studio/toolchain/risc-v embedded gcc/bin/../lib/gcc/riscv-none-embed/8.2.0/../../../../riscv-none-embed/lib/rv32imacxw/ilp32\libg_nano.a(lib_a-strtok.o) (_impure_ptr)
e:/program/mounriver/mounriver_studio/toolchain/risc-v embedded gcc/bin/../lib/gcc/riscv-none-embed/8.2.0/../../../../riscv-none-embed/lib/rv32imacxw/ilp32\libg_nano.a(lib_a-locale.o)
                              e:/program/mounriver/mounriver_studio/toolchain/risc-v embedded gcc/bin/../lib/gcc/riscv-none-embed/8.2.0/../../../../riscv-none-embed/lib/rv32imacxw/ilp32\libg_nano.a(lib_a-strtol.o) (__locale_ctype_ptr_l)
e:/program/mounriver/mounriver_studio/toolchain/risc-v embedded gcc/bin/../lib/gcc/riscv-none-embed/8.2.0/../../../../riscv-none-embed/lib/rv32imacxw/ilp32\libg_nano.a(lib_a-malloc.o)
                              e:/program/mounriver/mounriver_studio/toolchain/risc-v embedded gcc/bin/../lib/gcc/riscv-none-embed/8.2.0/../../../../riscv-none-embed/lib/rv32imacxw/ilp32\libg_nano.a(lib_a-strtok.o) (malloc)
e:/program/mounriver/mounriver_studio/toolchain/risc-v embedded gcc/bin/../lib/gcc/riscv-none-embed/8.2.0/../../../../riscv-none-embed/lib/rv32imacxw/ilp32\libg_nano.a(lib_a-mbtowc_r.o)
                              e:/program/mounriver/mounriver_studio/toolchain/risc-v embedded gcc/bin/../lib/gcc/riscv-none-embed/8.2.0/../../../../riscv-none-embed/lib/rv32imacxw/ilp32\libg_nano.a(lib_a-locale.o) (__ascii_mbtowc)
e:/program/mounriver/mounriver_studio/toolchain/risc-v embedded gcc/bin/../lib/gcc/riscv-none-embed/8.2.0/../../../../riscv-none-embed/lib/rv32imacxw/ilp32\libg_nano.a(lib_a-nano-freer.o)
                              e:/program/mounriver/mounriver_studio/toolchain/risc-v embedded gcc/bin/../lib/gcc/riscv-none-embed/8.2.0/../../../../riscv-none-embed/lib/rv32imacxw/ilp32\libg_nano.a(lib_a-malloc.o) (_free_r)
e:/program/mounriver/mounriver_studio/toolchain/risc-v embedded gcc/bin/../lib/gcc/riscv-none-embed/8.2.0/../../../../riscv-none-embed/lib/rv32imacxw/ilp32\libg_nano.a(lib_a-nano-mallocr.o)
                              e:/program/mounriver/mounriver_studio/toolchain/risc-v embedded gcc/bin/../lib/gcc/riscv-none-embed/8.2.0/../../../../riscv-none-embed/lib/rv32imacxw/ilp32\libg_nano.a(lib_a-malloc.o) (_malloc_r)
e:/program/mounriver/mounriver_studio/toolchain/risc-v embedded gcc/bin/../lib/gcc/riscv-none-embed/8.2.0/../../../../riscv-none-embed/lib/rv32imacxw/ilp32\libg_nano.a(lib_a-sbrkr.o)
                              e:/program/mounriver/mounriver_studio/toolchain/risc-v embedded gcc/bin/../lib/gcc/riscv-none-embed/8.2.0/../../../../riscv-none-embed/lib/rv32imacxw/ilp32\libg_nano.a(lib_a-nano-mallocr.o) (_sbrk_r)
e:/program/mounriver/mounriver_studio/toolchain/risc-v embedded gcc/bin/../lib/gcc/riscv-none-embed/8.2.0/../../../../riscv-none-embed/lib/rv32imacxw/ilp32\libg_nano.a(lib_a-wctomb_r.o)
                              e:/program/mounriver/mounriver_studio/toolchain/risc-v embedded gcc/bin/../lib/gcc/riscv-none-embed/8.2.0/../../../../riscv-none-embed/lib/rv32imacxw/ilp32\libg_nano.a(lib_a-locale.o) (__ascii_wctomb)
e:/program/mounriver/mounriver_studio/toolchain/risc-v embedded gcc/bin/../lib/gcc/riscv-none-embed/8.2.0/../../../../riscv-none-embed/lib/rv32imacxw/ilp32\libg_nano.a(lib_a-ctype_.o)
                              e:/program/mounriver/mounriver_studio/toolchain/risc-v embedded gcc/bin/../lib/gcc/riscv-none-embed/8.2.0/../../../../riscv-none-embed/lib/rv32imacxw/ilp32\libg_nano.a(lib_a-locale.o) (_ctype_)
e:/program/mounriver/mounriver_studio/toolchain/risc-v embedded gcc/bin/../lib/gcc/riscv-none-embed/8.2.0/../../../../riscv-none-embed/lib/rv32imacxw/ilp32\libg_nano.a(lib_a-mlock.o)
                              e:/program/mounriver/mounriver_studio/toolchain/risc-v embedded gcc/bin/../lib/gcc/riscv-none-embed/8.2.0/../../../../riscv-none-embed/lib/rv32imacxw/ilp32\libg_nano.a(lib_a-nano-freer.o) (__malloc_lock)
e:/program/mounriver/mounriver_studio/toolchain/risc-v embedded gcc/bin/../lib/gcc/riscv-none-embed/8.2.0/../../../../riscv-none-embed/lib/rv32imacxw/ilp32\libg_nano.a(lib_a-reent.o)
                              e:/program/mounriver/mounriver_studio/toolchain/risc-v embedded gcc/bin/../lib/gcc/riscv-none-embed/8.2.0/../../../../riscv-none-embed/lib/rv32imacxw/ilp32\libg_nano.a(lib_a-sbrkr.o) (errno)

Allocating common symbols
Common symbol       size              file

errno               0x4               e:/program/mounriver/mounriver_studio/toolchain/risc-v embedded gcc/bin/../lib/gcc/riscv-none-embed/8.2.0/../../../../riscv-none-embed/lib/rv32imacxw/ilp32\libg_nano.a(lib_a-reent.o)

Discarded input sections

 .text          0x0000000000000000        0x0 ./User/ch32v30x_it.o
 .data          0x0000000000000000        0x0 ./User/ch32v30x_it.o
 .bss           0x0000000000000000        0x0 ./User/ch32v30x_it.o
 .text          0x0000000000000000        0x0 ./User/main.o
 .data          0x0000000000000000        0x0 ./User/main.o
 .bss           0x0000000000000000        0x0 ./User/main.o
 .text          0x0000000000000000        0x0 ./User/system_ch32v30x.o
 .data          0x0000000000000000        0x0 ./User/system_ch32v30x.o
 .bss           0x0000000000000000        0x0 ./User/system_ch32v30x.o
 .text          0x0000000000000000        0x0 ./Startup/startup_ch32v30x_D8C.o
 .data          0x0000000000000000        0x0 ./Startup/startup_ch32v30x_D8C.o
 .bss           0x0000000000000000        0x0 ./Startup/startup_ch32v30x_D8C.o
 .text          0x0000000000000000        0x0 ./Peripheral/src/ch32v30x_adc.o
 .data          0x0000000000000000        0x0 ./Peripheral/src/ch32v30x_adc.o
 .bss           0x0000000000000000        0x0 ./Peripheral/src/ch32v30x_adc.o
 .text.ADC_DeInit
                0x0000000000000000       0x5a ./Peripheral/src/ch32v30x_adc.o
 .text.ADC_Init
                0x0000000000000000       0x56 ./Peripheral/src/ch32v30x_adc.o
 .text.ADC_StructInit
                0x0000000000000000       0x1a ./Peripheral/src/ch32v30x_adc.o
 .text.ADC_Cmd  0x0000000000000000       0x10 ./Peripheral/src/ch32v30x_adc.o
 .text.ADC_DMACmd
                0x0000000000000000       0x12 ./Peripheral/src/ch32v30x_adc.o
 .text.ADC_ITConfig
                0x0000000000000000       0x16 ./Peripheral/src/ch32v30x_adc.o
 .text.ADC_ResetCalibration
                0x0000000000000000        0xa ./Peripheral/src/ch32v30x_adc.o
 .text.ADC_GetResetCalibrationStatus
                0x0000000000000000        0x8 ./Peripheral/src/ch32v30x_adc.o
 .text.ADC_StartCalibration
                0x0000000000000000        0xa ./Peripheral/src/ch32v30x_adc.o
 .text.ADC_GetCalibrationStatus
                0x0000000000000000        0x8 ./Peripheral/src/ch32v30x_adc.o
 .text.ADC_SoftwareStartConvCmd
                0x0000000000000000       0x18 ./Peripheral/src/ch32v30x_adc.o
 .text.ADC_GetSoftwareStartConvStatus
                0x0000000000000000        0x8 ./Peripheral/src/ch32v30x_adc.o
 .text.ADC_DiscModeChannelCountConfig
                0x0000000000000000       0x12 ./Peripheral/src/ch32v30x_adc.o
 .text.ADC_DiscModeCmd
                0x0000000000000000       0x1a ./Peripheral/src/ch32v30x_adc.o
 .text.ADC_RegularChannelConfig
                0x0000000000000000       0xb8 ./Peripheral/src/ch32v30x_adc.o
 .text.ADC_ExternalTrigConvCmd
                0x0000000000000000       0x18 ./Peripheral/src/ch32v30x_adc.o
 .text.ADC_GetConversionValue
                0x0000000000000000        0x8 ./Peripheral/src/ch32v30x_adc.o
 .text.ADC_GetDualModeConversionValue
                0x0000000000000000        0xa ./Peripheral/src/ch32v30x_adc.o
 .text.ADC_AutoInjectedConvCmd
                0x0000000000000000       0x12 ./Peripheral/src/ch32v30x_adc.o
 .text.ADC_InjectedDiscModeCmd
                0x0000000000000000       0x14 ./Peripheral/src/ch32v30x_adc.o
 .text.ADC_ExternalTrigInjectedConvConfig
                0x0000000000000000        0xe ./Peripheral/src/ch32v30x_adc.o
 .text.ADC_ExternalTrigInjectedConvCmd
                0x0000000000000000       0x14 ./Peripheral/src/ch32v30x_adc.o
 .text.ADC_SoftwareStartInjectedConvCmd
                0x0000000000000000       0x18 ./Peripheral/src/ch32v30x_adc.o
 .text.ADC_GetSoftwareStartInjectedConvCmdStatus
                0x0000000000000000        0x8 ./Peripheral/src/ch32v30x_adc.o
 .text.ADC_InjectedChannelConfig
                0x0000000000000000       0x7a ./Peripheral/src/ch32v30x_adc.o
 .text.ADC_InjectedSequencerLengthConfig
                0x0000000000000000       0x14 ./Peripheral/src/ch32v30x_adc.o
 .text.ADC_SetInjectedOffset
                0x0000000000000000       0x14 ./Peripheral/src/ch32v30x_adc.o
 .text.ADC_GetInjectedConversionValue
                0x0000000000000000       0x1c ./Peripheral/src/ch32v30x_adc.o
 .text.ADC_AnalogWatchdogCmd
                0x0000000000000000       0x12 ./Peripheral/src/ch32v30x_adc.o
 .text.ADC_AnalogWatchdogThresholdsConfig
                0x0000000000000000        0x6 ./Peripheral/src/ch32v30x_adc.o
 .text.ADC_AnalogWatchdogSingleChannelConfig
                0x0000000000000000        0xa ./Peripheral/src/ch32v30x_adc.o
 .text.ADC_TempSensorVrefintCmd
                0x0000000000000000       0x20 ./Peripheral/src/ch32v30x_adc.o
 .text.ADC_GetFlagStatus
                0x0000000000000000        0xa ./Peripheral/src/ch32v30x_adc.o
 .text.ADC_ClearFlag
                0x0000000000000000        0x8 ./Peripheral/src/ch32v30x_adc.o
 .text.ADC_GetITStatus
                0x0000000000000000       0x1c ./Peripheral/src/ch32v30x_adc.o
 .text.ADC_ClearITPendingBit
                0x0000000000000000        0xa ./Peripheral/src/ch32v30x_adc.o
 .text.TempSensor_Volt_To_Temper
                0x0000000000000000       0x28 ./Peripheral/src/ch32v30x_adc.o
 .text.ADC_BufferCmd
                0x0000000000000000       0x18 ./Peripheral/src/ch32v30x_adc.o
 .text.Get_CalibrationValue
                0x0000000000000000      0x144 ./Peripheral/src/ch32v30x_adc.o
 .debug_info    0x0000000000000000     0x16e9 ./Peripheral/src/ch32v30x_adc.o
 .debug_abbrev  0x0000000000000000      0x3a9 ./Peripheral/src/ch32v30x_adc.o
 .debug_loc     0x0000000000000000      0xab6 ./Peripheral/src/ch32v30x_adc.o
 .debug_aranges
                0x0000000000000000      0x150 ./Peripheral/src/ch32v30x_adc.o
 .debug_ranges  0x0000000000000000      0x140 ./Peripheral/src/ch32v30x_adc.o
 .debug_line    0x0000000000000000     0x1922 ./Peripheral/src/ch32v30x_adc.o
 .debug_str     0x0000000000000000      0xc80 ./Peripheral/src/ch32v30x_adc.o
 .comment       0x0000000000000000       0x34 ./Peripheral/src/ch32v30x_adc.o
 .debug_frame   0x0000000000000000      0x2b4 ./Peripheral/src/ch32v30x_adc.o
 .text          0x0000000000000000        0x0 ./Peripheral/src/ch32v30x_bkp.o
 .data          0x0000000000000000        0x0 ./Peripheral/src/ch32v30x_bkp.o
 .bss           0x0000000000000000        0x0 ./Peripheral/src/ch32v30x_bkp.o
 .text.BKP_DeInit
                0x0000000000000000       0x24 ./Peripheral/src/ch32v30x_bkp.o
 .text.BKP_TamperPinLevelConfig
                0x0000000000000000       0x20 ./Peripheral/src/ch32v30x_bkp.o
 .text.BKP_TamperPinCmd
                0x0000000000000000       0x20 ./Peripheral/src/ch32v30x_bkp.o
 .text.BKP_ITConfig
                0x0000000000000000       0x20 ./Peripheral/src/ch32v30x_bkp.o
 .text.BKP_RTCOutputConfig
                0x0000000000000000       0x18 ./Peripheral/src/ch32v30x_bkp.o
 .text.BKP_SetRTCCalibrationValue
                0x0000000000000000       0x18 ./Peripheral/src/ch32v30x_bkp.o
 .text.BKP_WriteBackupRegister
                0x0000000000000000       0x1c ./Peripheral/src/ch32v30x_bkp.o
 .text.BKP_ReadBackupRegister
                0x0000000000000000       0x1c ./Peripheral/src/ch32v30x_bkp.o
 .text.BKP_GetFlagStatus
                0x0000000000000000        0xe ./Peripheral/src/ch32v30x_bkp.o
 .text.BKP_ClearFlag
                0x0000000000000000       0x12 ./Peripheral/src/ch32v30x_bkp.o
 .text.BKP_GetITStatus
                0x0000000000000000        0xe ./Peripheral/src/ch32v30x_bkp.o
 .text.BKP_ClearITPendingBit
                0x0000000000000000       0x12 ./Peripheral/src/ch32v30x_bkp.o
 .debug_info    0x0000000000000000     0x10c2 ./Peripheral/src/ch32v30x_bkp.o
 .debug_abbrev  0x0000000000000000      0x2cc ./Peripheral/src/ch32v30x_bkp.o
 .debug_loc     0x0000000000000000       0xd8 ./Peripheral/src/ch32v30x_bkp.o
 .debug_aranges
                0x0000000000000000       0x78 ./Peripheral/src/ch32v30x_bkp.o
 .debug_ranges  0x0000000000000000       0x68 ./Peripheral/src/ch32v30x_bkp.o
 .debug_line    0x0000000000000000      0x71f ./Peripheral/src/ch32v30x_bkp.o
 .debug_str     0x0000000000000000      0xb0e ./Peripheral/src/ch32v30x_bkp.o
 .comment       0x0000000000000000       0x34 ./Peripheral/src/ch32v30x_bkp.o
 .debug_frame   0x0000000000000000       0xec ./Peripheral/src/ch32v30x_bkp.o
 .text          0x0000000000000000        0x0 ./Peripheral/src/ch32v30x_can.o
 .data          0x0000000000000000        0x0 ./Peripheral/src/ch32v30x_can.o
 .bss           0x0000000000000000        0x0 ./Peripheral/src/ch32v30x_can.o
 .text.CAN_DeInit
                0x0000000000000000       0x4c ./Peripheral/src/ch32v30x_can.o
 .text.CAN_Init
                0x0000000000000000       0xe8 ./Peripheral/src/ch32v30x_can.o
 .text.CAN_FilterInit
                0x0000000000000000       0xee ./Peripheral/src/ch32v30x_can.o
 .text.CAN_StructInit
                0x0000000000000000       0x24 ./Peripheral/src/ch32v30x_can.o
 .text.CAN_SlaveStartBank
                0x0000000000000000       0x38 ./Peripheral/src/ch32v30x_can.o
 .text.CAN_DBGFreeze
                0x0000000000000000       0x14 ./Peripheral/src/ch32v30x_can.o
 .text.CAN_TTComModeCmd
                0x0000000000000000       0x58 ./Peripheral/src/ch32v30x_can.o
 .text.CAN_Transmit
                0x0000000000000000       0xbc ./Peripheral/src/ch32v30x_can.o
 .text.CAN_TransmitStatus
                0x0000000000000000       0x62 ./Peripheral/src/ch32v30x_can.o
 .text.CAN_CancelTransmit
                0x0000000000000000       0x2a ./Peripheral/src/ch32v30x_can.o
 .text.CAN_Receive
                0x0000000000000000       0x8c ./Peripheral/src/ch32v30x_can.o
 .text.CAN_FIFORelease
                0x0000000000000000       0x16 ./Peripheral/src/ch32v30x_can.o
 .text.CAN_MessagePending
                0x0000000000000000       0x16 ./Peripheral/src/ch32v30x_can.o
 .text.CAN_OperatingModeRequest
                0x0000000000000000       0x72 ./Peripheral/src/ch32v30x_can.o
 .text.CAN_Sleep
                0x0000000000000000       0x16 ./Peripheral/src/ch32v30x_can.o
 .text.CAN_WakeUp
                0x0000000000000000       0x1e ./Peripheral/src/ch32v30x_can.o
 .text.CAN_GetLastErrorCode
                0x0000000000000000        0x8 ./Peripheral/src/ch32v30x_can.o
 .text.CAN_GetReceiveErrorCounter
                0x0000000000000000        0x6 ./Peripheral/src/ch32v30x_can.o
 .text.CAN_GetLSBTransmitErrorCounter
                0x0000000000000000        0xa ./Peripheral/src/ch32v30x_can.o
 .text.CAN_ITConfig
                0x0000000000000000       0x12 ./Peripheral/src/ch32v30x_can.o
 .text.CAN_GetFlagStatus
                0x0000000000000000       0x56 ./Peripheral/src/ch32v30x_can.o
 .text.CAN_ClearFlag
                0x0000000000000000       0x40 ./Peripheral/src/ch32v30x_can.o
 .text.CAN_GetITStatus
                0x0000000000000000       0xd0 ./Peripheral/src/ch32v30x_can.o
 .text.CAN_ClearITPendingBit
                0x0000000000000000       0x94 ./Peripheral/src/ch32v30x_can.o
 .debug_info    0x0000000000000000     0x1807 ./Peripheral/src/ch32v30x_can.o
 .debug_abbrev  0x0000000000000000      0x3eb ./Peripheral/src/ch32v30x_can.o
 .debug_loc     0x0000000000000000      0x999 ./Peripheral/src/ch32v30x_can.o
 .debug_aranges
                0x0000000000000000       0xd8 ./Peripheral/src/ch32v30x_can.o
 .debug_ranges  0x0000000000000000       0xf8 ./Peripheral/src/ch32v30x_can.o
 .debug_line    0x0000000000000000     0x1ae2 ./Peripheral/src/ch32v30x_can.o
 .debug_str     0x0000000000000000      0xc24 ./Peripheral/src/ch32v30x_can.o
 .comment       0x0000000000000000       0x34 ./Peripheral/src/ch32v30x_can.o
 .debug_frame   0x0000000000000000      0x19c ./Peripheral/src/ch32v30x_can.o
 .text          0x0000000000000000        0x0 ./Peripheral/src/ch32v30x_crc.o
 .data          0x0000000000000000        0x0 ./Peripheral/src/ch32v30x_crc.o
 .bss           0x0000000000000000        0x0 ./Peripheral/src/ch32v30x_crc.o
 .text.CRC_ResetDR
                0x0000000000000000        0xa ./Peripheral/src/ch32v30x_crc.o
 .text.CRC_CalcCRC
                0x0000000000000000        0xa ./Peripheral/src/ch32v30x_crc.o
 .text.CRC_CalcBlockCRC
                0x0000000000000000       0x20 ./Peripheral/src/ch32v30x_crc.o
 .text.CRC_GetCRC
                0x0000000000000000        0x8 ./Peripheral/src/ch32v30x_crc.o
 .text.CRC_SetIDRegister
                0x0000000000000000        0x8 ./Peripheral/src/ch32v30x_crc.o
 .text.CRC_GetIDRegister
                0x0000000000000000        0x8 ./Peripheral/src/ch32v30x_crc.o
 .debug_info    0x0000000000000000      0xab3 ./Peripheral/src/ch32v30x_crc.o
 .debug_abbrev  0x0000000000000000      0x25f ./Peripheral/src/ch32v30x_crc.o
 .debug_loc     0x0000000000000000       0x75 ./Peripheral/src/ch32v30x_crc.o
 .debug_aranges
                0x0000000000000000       0x48 ./Peripheral/src/ch32v30x_crc.o
 .debug_ranges  0x0000000000000000       0x38 ./Peripheral/src/ch32v30x_crc.o
 .debug_line    0x0000000000000000      0x458 ./Peripheral/src/ch32v30x_crc.o
 .debug_str     0x0000000000000000      0x6e4 ./Peripheral/src/ch32v30x_crc.o
 .comment       0x0000000000000000       0x34 ./Peripheral/src/ch32v30x_crc.o
 .debug_frame   0x0000000000000000       0x70 ./Peripheral/src/ch32v30x_crc.o
 .text          0x0000000000000000        0x0 ./Peripheral/src/ch32v30x_dac.o
 .data          0x0000000000000000        0x0 ./Peripheral/src/ch32v30x_dac.o
 .bss           0x0000000000000000        0x0 ./Peripheral/src/ch32v30x_dac.o
 .text.DAC_DeInit
                0x0000000000000000       0x2c ./Peripheral/src/ch32v30x_dac.o
 .text.DAC_Init
                0x0000000000000000       0x30 ./Peripheral/src/ch32v30x_dac.o
 .text.DAC_StructInit
                0x0000000000000000       0x12 ./Peripheral/src/ch32v30x_dac.o
 .text.DAC_Cmd  0x0000000000000000       0x2c ./Peripheral/src/ch32v30x_dac.o
 .text.DAC_DMACmd
                0x0000000000000000       0x2c ./Peripheral/src/ch32v30x_dac.o
 .text.DAC_SoftwareTriggerCmd
                0x0000000000000000       0x22 ./Peripheral/src/ch32v30x_dac.o
 .text.DAC_DualSoftwareTriggerCmd
                0x0000000000000000       0x18 ./Peripheral/src/ch32v30x_dac.o
 .text.DAC_WaveGenerationCmd
                0x0000000000000000       0x1e ./Peripheral/src/ch32v30x_dac.o
 .text.DAC_SetChannel1Data
                0x0000000000000000       0x1e ./Peripheral/src/ch32v30x_dac.o
 .text.DAC_SetChannel2Data
                0x0000000000000000       0x1e ./Peripheral/src/ch32v30x_dac.o
 .text.DAC_SetDualChannelData
                0x0000000000000000       0x1c ./Peripheral/src/ch32v30x_dac.o
 .text.DAC_GetDataOutputValue
                0x0000000000000000       0x26 ./Peripheral/src/ch32v30x_dac.o
 .debug_info    0x0000000000000000      0xdbd ./Peripheral/src/ch32v30x_dac.o
 .debug_abbrev  0x0000000000000000      0x2fe ./Peripheral/src/ch32v30x_dac.o
 .debug_loc     0x0000000000000000      0x238 ./Peripheral/src/ch32v30x_dac.o
 .debug_aranges
                0x0000000000000000       0x78 ./Peripheral/src/ch32v30x_dac.o
 .debug_ranges  0x0000000000000000       0x68 ./Peripheral/src/ch32v30x_dac.o
 .debug_line    0x0000000000000000      0x89f ./Peripheral/src/ch32v30x_dac.o
 .debug_str     0x0000000000000000      0x868 ./Peripheral/src/ch32v30x_dac.o
 .comment       0x0000000000000000       0x34 ./Peripheral/src/ch32v30x_dac.o
 .debug_frame   0x0000000000000000       0xf4 ./Peripheral/src/ch32v30x_dac.o
 .text          0x0000000000000000        0x0 ./Peripheral/src/ch32v30x_dbgmcu.o
 .data          0x0000000000000000        0x0 ./Peripheral/src/ch32v30x_dbgmcu.o
 .bss           0x0000000000000000        0x0 ./Peripheral/src/ch32v30x_dbgmcu.o
 .text.DBGMCU_GetREVID
                0x0000000000000000        0xa ./Peripheral/src/ch32v30x_dbgmcu.o
 .text.DBGMCU_GetDEVID
                0x0000000000000000        0xa ./Peripheral/src/ch32v30x_dbgmcu.o
 .text.__get_DEBUG_CR
                0x0000000000000000        0x6 ./Peripheral/src/ch32v30x_dbgmcu.o
 .text.__set_DEBUG_CR
                0x0000000000000000        0x6 ./Peripheral/src/ch32v30x_dbgmcu.o
 .text.DBGMCU_Config
                0x0000000000000000       0x14 ./Peripheral/src/ch32v30x_dbgmcu.o
 .text          0x0000000000000000        0x0 ./Peripheral/src/ch32v30x_dma.o
 .data          0x0000000000000000        0x0 ./Peripheral/src/ch32v30x_dma.o
 .bss           0x0000000000000000        0x0 ./Peripheral/src/ch32v30x_dma.o
 .text.DMA_DeInit
                0x0000000000000000      0x16c ./Peripheral/src/ch32v30x_dma.o
 .text.DMA_Init
                0x0000000000000000       0x38 ./Peripheral/src/ch32v30x_dma.o
 .text.DMA_StructInit
                0x0000000000000000       0x2e ./Peripheral/src/ch32v30x_dma.o
 .text.DMA_Cmd  0x0000000000000000       0x14 ./Peripheral/src/ch32v30x_dma.o
 .text.DMA_ITConfig
                0x0000000000000000       0x12 ./Peripheral/src/ch32v30x_dma.o
 .text.DMA_SetCurrDataCounter
                0x0000000000000000        0x4 ./Peripheral/src/ch32v30x_dma.o
 .text.DMA_GetCurrDataCounter
                0x0000000000000000        0x8 ./Peripheral/src/ch32v30x_dma.o
 .text.DMA_GetFlagStatus
                0x0000000000000000       0x32 ./Peripheral/src/ch32v30x_dma.o
 .text.DMA_ClearFlag
                0x0000000000000000       0x2c ./Peripheral/src/ch32v30x_dma.o
 .text.DMA_GetITStatus
                0x0000000000000000       0x18 ./Peripheral/src/ch32v30x_dma.o
 .text.DMA_ClearITPendingBit
                0x0000000000000000       0x18 ./Peripheral/src/ch32v30x_dma.o
 .debug_info    0x0000000000000000      0xd16 ./Peripheral/src/ch32v30x_dma.o
 .debug_abbrev  0x0000000000000000      0x2fd ./Peripheral/src/ch32v30x_dma.o
 .debug_loc     0x0000000000000000      0x19a ./Peripheral/src/ch32v30x_dma.o
 .debug_aranges
                0x0000000000000000       0x60 ./Peripheral/src/ch32v30x_dma.o
 .debug_ranges  0x0000000000000000       0x50 ./Peripheral/src/ch32v30x_dma.o
 .debug_line    0x0000000000000000      0xa86 ./Peripheral/src/ch32v30x_dma.o
 .debug_str     0x0000000000000000      0x85c ./Peripheral/src/ch32v30x_dma.o
 .comment       0x0000000000000000       0x34 ./Peripheral/src/ch32v30x_dma.o
 .debug_frame   0x0000000000000000       0xd8 ./Peripheral/src/ch32v30x_dma.o
 .text          0x0000000000000000        0x0 ./Peripheral/src/ch32v30x_dvp.o
 .data          0x0000000000000000        0x0 ./Peripheral/src/ch32v30x_dvp.o
 .bss           0x0000000000000000        0x0 ./Peripheral/src/ch32v30x_dvp.o
 .text.DVP_INTCfg
                0x0000000000000000       0x16 ./Peripheral/src/ch32v30x_dvp.o
 .text.DVP_Mode
                0x0000000000000000       0x32 ./Peripheral/src/ch32v30x_dvp.o
 .text.DVP_Cfg  0x0000000000000000       0x62 ./Peripheral/src/ch32v30x_dvp.o
 .debug_info    0x0000000000000000      0xbc5 ./Peripheral/src/ch32v30x_dvp.o
 .debug_abbrev  0x0000000000000000      0x241 ./Peripheral/src/ch32v30x_dvp.o
 .debug_loc     0x0000000000000000       0x74 ./Peripheral/src/ch32v30x_dvp.o
 .debug_aranges
                0x0000000000000000       0x30 ./Peripheral/src/ch32v30x_dvp.o
 .debug_ranges  0x0000000000000000       0x20 ./Peripheral/src/ch32v30x_dvp.o
 .debug_line    0x0000000000000000      0x4cb ./Peripheral/src/ch32v30x_dvp.o
 .debug_str     0x0000000000000000      0x7a5 ./Peripheral/src/ch32v30x_dvp.o
 .comment       0x0000000000000000       0x34 ./Peripheral/src/ch32v30x_dvp.o
 .debug_frame   0x0000000000000000       0x40 ./Peripheral/src/ch32v30x_dvp.o
 .text          0x0000000000000000        0x0 ./Peripheral/src/ch32v30x_eth.o
 .data          0x0000000000000000        0x0 ./Peripheral/src/ch32v30x_eth.o
 .bss           0x0000000000000000        0x0 ./Peripheral/src/ch32v30x_eth.o
 .text.ETH_HandleTxPkt
                0x0000000000000000       0x8c ./Peripheral/src/ch32v30x_eth.o
 .text.ETH_HandleRxPkt
                0x0000000000000000       0x9e ./Peripheral/src/ch32v30x_eth.o
 .text.ETH_GetRxPktSize
                0x0000000000000000       0x32 ./Peripheral/src/ch32v30x_eth.o
 .text.ETH_DropRxPkt
                0x0000000000000000       0x3c ./Peripheral/src/ch32v30x_eth.o
 .text.ETH_PHYLoopBackCmd
                0x0000000000000000       0x40 ./Peripheral/src/ch32v30x_eth.o
 .text.ETH_MACTransmissionCmd
                0x0000000000000000       0x14 ./Peripheral/src/ch32v30x_eth.o
 .text.ETH_MACReceptionCmd
                0x0000000000000000       0x14 ./Peripheral/src/ch32v30x_eth.o
 .text.ETH_GetFlowControlBusyStatus
                0x0000000000000000        0xa ./Peripheral/src/ch32v30x_eth.o
 .text.ETH_InitiatePauseControlFrame
                0x0000000000000000        0xe ./Peripheral/src/ch32v30x_eth.o
 .text.ETH_BackPressureActivationCmd
                0x0000000000000000       0x14 ./Peripheral/src/ch32v30x_eth.o
 .text.ETH_GetMACFlagStatus
                0x0000000000000000        0xe ./Peripheral/src/ch32v30x_eth.o
 .text.ETH_GetMACITStatus
                0x0000000000000000       0x18 ./Peripheral/src/ch32v30x_eth.o
 .text.ETH_MACITConfig
                0x0000000000000000       0x1e ./Peripheral/src/ch32v30x_eth.o
 .text.ETH_MACAddressConfig
                0x0000000000000000       0x32 ./Peripheral/src/ch32v30x_eth.o
 .text.ETH_GetMACAddress
                0x0000000000000000       0x32 ./Peripheral/src/ch32v30x_eth.o
 .text.ETH_MACAddressPerfectFilterCmd
                0x0000000000000000       0x1e ./Peripheral/src/ch32v30x_eth.o
 .text.ETH_MACAddressFilterConfig
                0x0000000000000000       0x28 ./Peripheral/src/ch32v30x_eth.o
 .text.ETH_MACAddressMaskBytesFilterConfig
                0x0000000000000000       0x1e ./Peripheral/src/ch32v30x_eth.o
 .text.ETH_DMATxDescRingInit
                0x0000000000000000       0x44 ./Peripheral/src/ch32v30x_eth.o
 .text.ETH_GetDMATxDescFlagStatus
                0x0000000000000000        0xa ./Peripheral/src/ch32v30x_eth.o
 .text.ETH_GetDMATxDescCollisionCount
                0x0000000000000000        0x8 ./Peripheral/src/ch32v30x_eth.o
 .text.ETH_SetDMATxDescOwnBit
                0x0000000000000000        0xc ./Peripheral/src/ch32v30x_eth.o
 .text.ETH_DMATxDescTransmitITConfig
                0x0000000000000000       0x18 ./Peripheral/src/ch32v30x_eth.o
 .text.ETH_DMATxDescFrameSegmentConfig
                0x0000000000000000        0x8 ./Peripheral/src/ch32v30x_eth.o
 .text.ETH_DMATxDescChecksumInsertionConfig
                0x0000000000000000        0x8 ./Peripheral/src/ch32v30x_eth.o
 .text.ETH_DMATxDescCRCCmd
                0x0000000000000000       0x18 ./Peripheral/src/ch32v30x_eth.o
 .text.ETH_DMATxDescEndOfRingCmd
                0x0000000000000000       0x18 ./Peripheral/src/ch32v30x_eth.o
 .text.ETH_DMATxDescSecondAddressChainedCmd
                0x0000000000000000       0x18 ./Peripheral/src/ch32v30x_eth.o
 .text.ETH_DMATxDescShortFramePaddingCmd
                0x0000000000000000       0x18 ./Peripheral/src/ch32v30x_eth.o
 .text.ETH_DMATxDescTimeStampCmd
                0x0000000000000000       0x18 ./Peripheral/src/ch32v30x_eth.o
 .text.ETH_DMATxDescBufferSizeConfig
                0x0000000000000000        0xc ./Peripheral/src/ch32v30x_eth.o
 .text.ETH_DMARxDescRingInit
                0x0000000000000000       0x52 ./Peripheral/src/ch32v30x_eth.o
 .text.ETH_GetDMARxDescFlagStatus
                0x0000000000000000        0xa ./Peripheral/src/ch32v30x_eth.o
 .text.ETH_SetDMARxDescOwnBit
                0x0000000000000000        0xc ./Peripheral/src/ch32v30x_eth.o
 .text.ETH_GetDMARxDescFrameLength
                0x0000000000000000        0x8 ./Peripheral/src/ch32v30x_eth.o
 .text.ETH_DMARxDescReceiveITConfig
                0x0000000000000000       0x14 ./Peripheral/src/ch32v30x_eth.o
 .text.ETH_DMARxDescEndOfRingCmd
                0x0000000000000000       0x14 ./Peripheral/src/ch32v30x_eth.o
 .text.ETH_DMARxDescSecondAddressChainedCmd
                0x0000000000000000       0x14 ./Peripheral/src/ch32v30x_eth.o
 .text.ETH_GetDMARxDescBufferSize
                0x0000000000000000        0xe ./Peripheral/src/ch32v30x_eth.o
 .text.ETH_GetSoftwareResetStatus
                0x0000000000000000        0xa ./Peripheral/src/ch32v30x_eth.o
 .text.ETH_GetlinkStaus
                0x0000000000000000        0xa ./Peripheral/src/ch32v30x_eth.o
 .text.ETH_GetDMAFlagStatus
                0x0000000000000000        0xe ./Peripheral/src/ch32v30x_eth.o
 .text.ETH_DMAClearFlag
                0x0000000000000000        0x8 ./Peripheral/src/ch32v30x_eth.o
 .text.ETH_GetDMAITStatus
                0x0000000000000000       0x18 ./Peripheral/src/ch32v30x_eth.o
 .text.ETH_GetTransmitProcessState
                0x0000000000000000        0xa ./Peripheral/src/ch32v30x_eth.o
 .text.ETH_GetReceiveProcessState
                0x0000000000000000        0xc ./Peripheral/src/ch32v30x_eth.o
 .text.ETH_GetFlushTransmitFIFOStatus
                0x0000000000000000        0xc ./Peripheral/src/ch32v30x_eth.o
 .text.ETH_DMATransmissionCmd
                0x0000000000000000       0x20 ./Peripheral/src/ch32v30x_eth.o
 .text.ETH_DMAReceptionCmd
                0x0000000000000000       0x14 ./Peripheral/src/ch32v30x_eth.o
 .text.ETH_GetDMAOverflowStatus
                0x0000000000000000        0xe ./Peripheral/src/ch32v30x_eth.o
 .text.ETH_GetRxOverflowMissedFrameCounter
                0x0000000000000000        0xe ./Peripheral/src/ch32v30x_eth.o
 .text.ETH_GetBufferUnavailableMissedFrameCounter
                0x0000000000000000        0xc ./Peripheral/src/ch32v30x_eth.o
 .text.ETH_GetCurrentTxDescStartAddress
                0x0000000000000000        0x8 ./Peripheral/src/ch32v30x_eth.o
 .text.ETH_GetCurrentRxDescStartAddress
                0x0000000000000000        0x8 ./Peripheral/src/ch32v30x_eth.o
 .text.ETH_GetCurrentTxBufferAddress
                0x0000000000000000        0xc ./Peripheral/src/ch32v30x_eth.o
 .text.ETH_GetCurrentRxBufferAddress
                0x0000000000000000        0x8 ./Peripheral/src/ch32v30x_eth.o
 .text.ETH_ResumeDMATransmission
                0x0000000000000000        0xa ./Peripheral/src/ch32v30x_eth.o
 .text.ETH_ResumeDMAReception
                0x0000000000000000        0xa ./Peripheral/src/ch32v30x_eth.o
 .text.ETH_ResetWakeUpFrameFilterRegisterPointer
                0x0000000000000000       0x10 ./Peripheral/src/ch32v30x_eth.o
 .text.ETH_SetWakeUpFrameFilterRegister
                0x0000000000000000       0x14 ./Peripheral/src/ch32v30x_eth.o
 .text.ETH_GlobalUnicastWakeUpCmd
                0x0000000000000000       0x16 ./Peripheral/src/ch32v30x_eth.o
 .text.ETH_GetPMTFlagStatus
                0x0000000000000000        0xe ./Peripheral/src/ch32v30x_eth.o
 .text.ETH_WakeUpFrameDetectionCmd
                0x0000000000000000       0x14 ./Peripheral/src/ch32v30x_eth.o
 .text.ETH_MagicPacketDetectionCmd
                0x0000000000000000       0x14 ./Peripheral/src/ch32v30x_eth.o
 .text.ETH_PowerDownCmd
                0x0000000000000000       0x14 ./Peripheral/src/ch32v30x_eth.o
 .text.ETH_MMCCounterFreezeCmd
                0x0000000000000000       0x18 ./Peripheral/src/ch32v30x_eth.o
 .text.ETH_MMCResetOnReadCmd
                0x0000000000000000       0x18 ./Peripheral/src/ch32v30x_eth.o
 .text.ETH_MMCCounterRolloverCmd
                0x0000000000000000       0x18 ./Peripheral/src/ch32v30x_eth.o
 .text.ETH_MMCCountersReset
                0x0000000000000000       0x12 ./Peripheral/src/ch32v30x_eth.o
 .text.ETH_MMCITConfig
                0x0000000000000000       0x5c ./Peripheral/src/ch32v30x_eth.o
 .text.ETH_GetMMCITStatus
                0x0000000000000000       0x3a ./Peripheral/src/ch32v30x_eth.o
 .text.ETH_GetMMCRegister
                0x0000000000000000        0xa ./Peripheral/src/ch32v30x_eth.o
 .text.ETH_EnablePTPTimeStampAddend
                0x0000000000000000       0x12 ./Peripheral/src/ch32v30x_eth.o
 .text.ETH_EnablePTPTimeStampInterruptTrigger
                0x0000000000000000       0x12 ./Peripheral/src/ch32v30x_eth.o
 .text.ETH_EnablePTPTimeStampUpdate
                0x0000000000000000       0x12 ./Peripheral/src/ch32v30x_eth.o
 .text.ETH_InitializePTPTimeStamp
                0x0000000000000000       0x12 ./Peripheral/src/ch32v30x_eth.o
 .text.ETH_PTPUpdateMethodConfig
                0x0000000000000000       0x18 ./Peripheral/src/ch32v30x_eth.o
 .text.ETH_PTPTimeStampCmd
                0x0000000000000000       0x18 ./Peripheral/src/ch32v30x_eth.o
 .text.ETH_GetPTPFlagStatus
                0x0000000000000000       0x10 ./Peripheral/src/ch32v30x_eth.o
 .text.ETH_SetPTPSubSecondIncrement
                0x0000000000000000        0xa ./Peripheral/src/ch32v30x_eth.o
 .text.ETH_SetPTPTimeStampUpdate
                0x0000000000000000       0x10 ./Peripheral/src/ch32v30x_eth.o
 .text.ETH_SetPTPTimeStampAddend
                0x0000000000000000        0xa ./Peripheral/src/ch32v30x_eth.o
 .text.ETH_SetPTPTargetTime
                0x0000000000000000        0xe ./Peripheral/src/ch32v30x_eth.o
 .text.ETH_GetPTPRegister
                0x0000000000000000        0xa ./Peripheral/src/ch32v30x_eth.o
 .text.ETH_DMAPTPTxDescChainInit
                0x0000000000000000       0x66 ./Peripheral/src/ch32v30x_eth.o
 .text.ETH_DMAPTPRxDescChainInit
                0x0000000000000000       0x70 ./Peripheral/src/ch32v30x_eth.o
 .text.ETH_HandlePTPTxPkt
                0x0000000000000000       0xe6 ./Peripheral/src/ch32v30x_eth.o
 .text.ETH_HandlePTPRxPkt
                0x0000000000000000       0xd0 ./Peripheral/src/ch32v30x_eth.o
 .text.RGMII_TXC_Delay
                0x0000000000000000       0x26 ./Peripheral/src/ch32v30x_eth.o
 .sbss.DMAPTPRxDescToGet
                0x0000000000000000        0x4 ./Peripheral/src/ch32v30x_eth.o
 .sbss.DMAPTPTxDescToSet
                0x0000000000000000        0x4 ./Peripheral/src/ch32v30x_eth.o
 .text          0x0000000000000000        0x0 ./Peripheral/src/ch32v30x_exti.o
 .data          0x0000000000000000        0x0 ./Peripheral/src/ch32v30x_exti.o
 .bss           0x0000000000000000        0x0 ./Peripheral/src/ch32v30x_exti.o
 .text.EXTI_DeInit
                0x0000000000000000       0x22 ./Peripheral/src/ch32v30x_exti.o
 .text.EXTI_Init
                0x0000000000000000       0x6a ./Peripheral/src/ch32v30x_exti.o
 .text.EXTI_StructInit
                0x0000000000000000       0x12 ./Peripheral/src/ch32v30x_exti.o
 .text.EXTI_GenerateSWInterrupt
                0x0000000000000000       0x10 ./Peripheral/src/ch32v30x_exti.o
 .text.EXTI_GetFlagStatus
                0x0000000000000000       0x12 ./Peripheral/src/ch32v30x_exti.o
 .text.EXTI_ClearFlag
                0x0000000000000000        0xa ./Peripheral/src/ch32v30x_exti.o
 .text.EXTI_GetITStatus
                0x0000000000000000       0x1e ./Peripheral/src/ch32v30x_exti.o
 .text          0x0000000000000000        0x0 ./Peripheral/src/ch32v30x_flash.o
 .data          0x0000000000000000        0x0 ./Peripheral/src/ch32v30x_flash.o
 .bss           0x0000000000000000        0x0 ./Peripheral/src/ch32v30x_flash.o
 .text.FLASH_UnlockBank1
                0x0000000000000000       0x18 ./Peripheral/src/ch32v30x_flash.o
 .text.FLASH_LockBank1
                0x0000000000000000       0x18 ./Peripheral/src/ch32v30x_flash.o
 .text.FLASH_GetUserOptionByte
                0x0000000000000000        0xa ./Peripheral/src/ch32v30x_flash.o
 .text.FLASH_GetWriteProtectionOptionByte
                0x0000000000000000        0x8 ./Peripheral/src/ch32v30x_flash.o
 .text.FLASH_GetReadOutProtectionStatus
                0x0000000000000000        0xc ./Peripheral/src/ch32v30x_flash.o
 .text.FLASH_ITConfig
                0x0000000000000000       0x1e ./Peripheral/src/ch32v30x_flash.o
 .text.FLASH_GetFlagStatus
                0x0000000000000000       0x1e ./Peripheral/src/ch32v30x_flash.o
 .text.FLASH_ClearFlag
                0x0000000000000000        0x8 ./Peripheral/src/ch32v30x_flash.o
 .text.FLASH_GetStatus
                0x0000000000000000       0x18 ./Peripheral/src/ch32v30x_flash.o
 .text.FLASH_ErasePage
                0x0000000000000000       0x4c ./Peripheral/src/ch32v30x_flash.o
 .text.FLASH_EraseAllPages
                0x0000000000000000       0x48 ./Peripheral/src/ch32v30x_flash.o
 .text.FLASH_EraseAllBank1Pages
                0x0000000000000000       0x18 ./Peripheral/src/ch32v30x_flash.o
 .text.FLASH_EraseOptionBytes
                0x0000000000000000       0xe6 ./Peripheral/src/ch32v30x_flash.o
 .text.FLASH_ProgramHalfWord
                0x0000000000000000       0x48 ./Peripheral/src/ch32v30x_flash.o
 .text.FLASH_ProgramOptionByteData
                0x0000000000000000      0x11a ./Peripheral/src/ch32v30x_flash.o
 .text.FLASH_EnableWriteProtection
                0x0000000000000000      0x106 ./Peripheral/src/ch32v30x_flash.o
 .text.FLASH_ReadOutProtection
                0x0000000000000000       0xf4 ./Peripheral/src/ch32v30x_flash.o
 .text.FLASH_UserOptionByteConfig
                0x0000000000000000      0x108 ./Peripheral/src/ch32v30x_flash.o
 .text.FLASH_WaitForLastBank1Operation
                0x0000000000000000       0x18 ./Peripheral/src/ch32v30x_flash.o
 .text.FLASH_EraseBlock_32K_Fast
                0x0000000000000000       0x30 ./Peripheral/src/ch32v30x_flash.o
 .text.FLASH_EraseBlock_64K_Fast
                0x0000000000000000       0x30 ./Peripheral/src/ch32v30x_flash.o
 .text.FLASH_ProgramPage_Fast
                0x0000000000000000       0x64 ./Peripheral/src/ch32v30x_flash.o
 .text.FLASH_Access_Clock_Cfg
                0x0000000000000000       0x18 ./Peripheral/src/ch32v30x_flash.o
 .text.FLASH_Enhance_Mode
                0x0000000000000000       0x2e ./Peripheral/src/ch32v30x_flash.o
 .text          0x0000000000000000        0x0 ./Peripheral/src/ch32v30x_fsmc.o
 .data          0x0000000000000000        0x0 ./Peripheral/src/ch32v30x_fsmc.o
 .bss           0x0000000000000000        0x0 ./Peripheral/src/ch32v30x_fsmc.o
 .text.FSMC_NORSRAMDeInit
                0x0000000000000000       0x3c ./Peripheral/src/ch32v30x_fsmc.o
 .text.FSMC_NANDDeInit
                0x0000000000000000       0x26 ./Peripheral/src/ch32v30x_fsmc.o
 .text.FSMC_NORSRAMInit
                0x0000000000000000       0xba ./Peripheral/src/ch32v30x_fsmc.o
 .text.FSMC_NANDInit
                0x0000000000000000       0x84 ./Peripheral/src/ch32v30x_fsmc.o
 .text.FSMC_NORSRAMStructInit
                0x0000000000000000       0x60 ./Peripheral/src/ch32v30x_fsmc.o
 .text.FSMC_NANDStructInit
                0x0000000000000000       0x36 ./Peripheral/src/ch32v30x_fsmc.o
 .text.FSMC_NORSRAMCmd
                0x0000000000000000       0x1e ./Peripheral/src/ch32v30x_fsmc.o
 .text.FSMC_NANDCmd
                0x0000000000000000       0x2c ./Peripheral/src/ch32v30x_fsmc.o
 .text.FSMC_NANDECCCmd
                0x0000000000000000       0x2e ./Peripheral/src/ch32v30x_fsmc.o
 .text.FSMC_GetECC
                0x0000000000000000       0x12 ./Peripheral/src/ch32v30x_fsmc.o
 .text.FSMC_ITConfig
                0x0000000000000000       0x26 ./Peripheral/src/ch32v30x_fsmc.o
 .text.FSMC_GetFlagStatus
                0x0000000000000000       0x18 ./Peripheral/src/ch32v30x_fsmc.o
 .text.FSMC_ClearFlag
                0x0000000000000000       0x16 ./Peripheral/src/ch32v30x_fsmc.o
 .text.FSMC_GetITStatus
                0x0000000000000000       0x28 ./Peripheral/src/ch32v30x_fsmc.o
 .text.FSMC_ClearITPendingBit
                0x0000000000000000       0x18 ./Peripheral/src/ch32v30x_fsmc.o
 .debug_info    0x0000000000000000     0x104d ./Peripheral/src/ch32v30x_fsmc.o
 .debug_abbrev  0x0000000000000000      0x2d9 ./Peripheral/src/ch32v30x_fsmc.o
 .debug_loc     0x0000000000000000      0x454 ./Peripheral/src/ch32v30x_fsmc.o
 .debug_aranges
                0x0000000000000000       0x90 ./Peripheral/src/ch32v30x_fsmc.o
 .debug_ranges  0x0000000000000000       0x80 ./Peripheral/src/ch32v30x_fsmc.o
 .debug_line    0x0000000000000000      0xee7 ./Peripheral/src/ch32v30x_fsmc.o
 .debug_str     0x0000000000000000      0xb31 ./Peripheral/src/ch32v30x_fsmc.o
 .comment       0x0000000000000000       0x34 ./Peripheral/src/ch32v30x_fsmc.o
 .debug_frame   0x0000000000000000      0x100 ./Peripheral/src/ch32v30x_fsmc.o
 .text          0x0000000000000000        0x0 ./Peripheral/src/ch32v30x_gpio.o
 .data          0x0000000000000000        0x0 ./Peripheral/src/ch32v30x_gpio.o
 .bss           0x0000000000000000        0x0 ./Peripheral/src/ch32v30x_gpio.o
 .text.GPIO_DeInit
                0x0000000000000000       0xa4 ./Peripheral/src/ch32v30x_gpio.o
 .text.GPIO_AFIODeInit
                0x0000000000000000       0x28 ./Peripheral/src/ch32v30x_gpio.o
 .text.GPIO_StructInit
                0x0000000000000000        0xe ./Peripheral/src/ch32v30x_gpio.o
 .text.GPIO_ReadInputData
                0x0000000000000000        0x8 ./Peripheral/src/ch32v30x_gpio.o
 .text.GPIO_ReadOutputDataBit
                0x0000000000000000        0xa ./Peripheral/src/ch32v30x_gpio.o
 .text.GPIO_ReadOutputData
                0x0000000000000000        0x8 ./Peripheral/src/ch32v30x_gpio.o
 .text.GPIO_WriteBit
                0x0000000000000000        0xa ./Peripheral/src/ch32v30x_gpio.o
 .text.GPIO_Write
                0x0000000000000000        0x4 ./Peripheral/src/ch32v30x_gpio.o
 .text.GPIO_PinLockConfig
                0x0000000000000000       0x10 ./Peripheral/src/ch32v30x_gpio.o
 .text.GPIO_EventOutputConfig
                0x0000000000000000       0x18 ./Peripheral/src/ch32v30x_gpio.o
 .text.GPIO_EventOutputCmd
                0x0000000000000000       0x16 ./Peripheral/src/ch32v30x_gpio.o
 .text.GPIO_PinRemapConfig
                0x0000000000000000       0xc4 ./Peripheral/src/ch32v30x_gpio.o
 .text.GPIO_EXTILineConfig
                0x0000000000000000       0x2c ./Peripheral/src/ch32v30x_gpio.o
 .text.GPIO_ETH_MediaInterfaceConfig
                0x0000000000000000       0x24 ./Peripheral/src/ch32v30x_gpio.o
 .text          0x0000000000000000        0x0 ./Peripheral/src/ch32v30x_i2c.o
 .data          0x0000000000000000        0x0 ./Peripheral/src/ch32v30x_i2c.o
 .bss           0x0000000000000000        0x0 ./Peripheral/src/ch32v30x_i2c.o
 .text.I2C_DeInit
                0x0000000000000000       0x4c ./Peripheral/src/ch32v30x_i2c.o
 .text.I2C_Init
                0x0000000000000000      0x100 ./Peripheral/src/ch32v30x_i2c.o
 .text.I2C_StructInit
                0x0000000000000000       0x18 ./Peripheral/src/ch32v30x_i2c.o
 .text.I2C_Cmd  0x0000000000000000       0x18 ./Peripheral/src/ch32v30x_i2c.o
 .text.I2C_DMACmd
                0x0000000000000000       0x1e ./Peripheral/src/ch32v30x_i2c.o
 .text.I2C_DMALastTransferCmd
                0x0000000000000000       0x16 ./Peripheral/src/ch32v30x_i2c.o
 .text.I2C_GenerateSTART
                0x0000000000000000       0x1a ./Peripheral/src/ch32v30x_i2c.o
 .text.I2C_GenerateSTOP
                0x0000000000000000       0x1a ./Peripheral/src/ch32v30x_i2c.o
 .text.I2C_AcknowledgeConfig
                0x0000000000000000       0x1a ./Peripheral/src/ch32v30x_i2c.o
 .text.I2C_OwnAddress2Config
                0x0000000000000000       0x14 ./Peripheral/src/ch32v30x_i2c.o
 .text.I2C_DualAddressCmd
                0x0000000000000000       0x18 ./Peripheral/src/ch32v30x_i2c.o
 .text.I2C_GeneralCallCmd
                0x0000000000000000       0x1a ./Peripheral/src/ch32v30x_i2c.o
 .text.I2C_ITConfig
                0x0000000000000000       0x12 ./Peripheral/src/ch32v30x_i2c.o
 .text.I2C_SendData
                0x0000000000000000        0x4 ./Peripheral/src/ch32v30x_i2c.o
 .text.I2C_ReceiveData
                0x0000000000000000        0x8 ./Peripheral/src/ch32v30x_i2c.o
 .text.I2C_Send7bitAddress
                0x0000000000000000       0x12 ./Peripheral/src/ch32v30x_i2c.o
 .text.I2C_ReadRegister
                0x0000000000000000       0x14 ./Peripheral/src/ch32v30x_i2c.o
 .text.I2C_SoftwareResetCmd
                0x0000000000000000       0x12 ./Peripheral/src/ch32v30x_i2c.o
 .text.I2C_NACKPositionConfig
                0x0000000000000000       0x22 ./Peripheral/src/ch32v30x_i2c.o
 .text.I2C_SMBusAlertConfig
                0x0000000000000000       0x1a ./Peripheral/src/ch32v30x_i2c.o
 .text.I2C_TransmitPEC
                0x0000000000000000       0x16 ./Peripheral/src/ch32v30x_i2c.o
 .text.I2C_PECPositionConfig
                0x0000000000000000       0x18 ./Peripheral/src/ch32v30x_i2c.o
 .text.I2C_CalculatePEC
                0x0000000000000000       0x1a ./Peripheral/src/ch32v30x_i2c.o
 .text.I2C_GetPEC
                0x0000000000000000        0x6 ./Peripheral/src/ch32v30x_i2c.o
 .text.I2C_ARPCmd
                0x0000000000000000       0x18 ./Peripheral/src/ch32v30x_i2c.o
 .text.I2C_StretchClockCmd
                0x0000000000000000       0x1a ./Peripheral/src/ch32v30x_i2c.o
 .text.I2C_FastModeDutyCycleConfig
                0x0000000000000000       0x1a ./Peripheral/src/ch32v30x_i2c.o
 .text.I2C_CheckEvent
                0x0000000000000000       0x16 ./Peripheral/src/ch32v30x_i2c.o
 .text.I2C_GetLastEvent
                0x0000000000000000        0xe ./Peripheral/src/ch32v30x_i2c.o
 .text.I2C_GetFlagStatus
                0x0000000000000000       0x32 ./Peripheral/src/ch32v30x_i2c.o
 .text.I2C_ClearFlag
                0x0000000000000000        0xc ./Peripheral/src/ch32v30x_i2c.o
 .text.I2C_GetITStatus
                0x0000000000000000       0x20 ./Peripheral/src/ch32v30x_i2c.o
 .text.I2C_ClearITPendingBit
                0x0000000000000000        0xc ./Peripheral/src/ch32v30x_i2c.o
 .debug_info    0x0000000000000000     0x1481 ./Peripheral/src/ch32v30x_i2c.o
 .debug_abbrev  0x0000000000000000      0x3a7 ./Peripheral/src/ch32v30x_i2c.o
 .debug_loc     0x0000000000000000      0x70d ./Peripheral/src/ch32v30x_i2c.o
 .debug_aranges
                0x0000000000000000      0x110 ./Peripheral/src/ch32v30x_i2c.o
 .debug_ranges  0x0000000000000000      0x100 ./Peripheral/src/ch32v30x_i2c.o
 .debug_line    0x0000000000000000     0x11f2 ./Peripheral/src/ch32v30x_i2c.o
 .debug_str     0x0000000000000000      0xb49 ./Peripheral/src/ch32v30x_i2c.o
 .comment       0x0000000000000000       0x34 ./Peripheral/src/ch32v30x_i2c.o
 .debug_frame   0x0000000000000000      0x264 ./Peripheral/src/ch32v30x_i2c.o
 .text          0x0000000000000000        0x0 ./Peripheral/src/ch32v30x_iwdg.o
 .data          0x0000000000000000        0x0 ./Peripheral/src/ch32v30x_iwdg.o
 .bss           0x0000000000000000        0x0 ./Peripheral/src/ch32v30x_iwdg.o
 .text.IWDG_WriteAccessCmd
                0x0000000000000000        0x8 ./Peripheral/src/ch32v30x_iwdg.o
 .text.IWDG_SetPrescaler
                0x0000000000000000        0x8 ./Peripheral/src/ch32v30x_iwdg.o
 .text.IWDG_SetReload
                0x0000000000000000        0x8 ./Peripheral/src/ch32v30x_iwdg.o
 .text.IWDG_ReloadCounter
                0x0000000000000000        0xe ./Peripheral/src/ch32v30x_iwdg.o
 .text.IWDG_Enable
                0x0000000000000000        0xe ./Peripheral/src/ch32v30x_iwdg.o
 .text.IWDG_GetFlagStatus
                0x0000000000000000        0xe ./Peripheral/src/ch32v30x_iwdg.o
 .debug_info    0x0000000000000000      0xab4 ./Peripheral/src/ch32v30x_iwdg.o
 .debug_abbrev  0x0000000000000000      0x282 ./Peripheral/src/ch32v30x_iwdg.o
 .debug_loc     0x0000000000000000       0x68 ./Peripheral/src/ch32v30x_iwdg.o
 .debug_aranges
                0x0000000000000000       0x48 ./Peripheral/src/ch32v30x_iwdg.o
 .debug_ranges  0x0000000000000000       0x38 ./Peripheral/src/ch32v30x_iwdg.o
 .debug_line    0x0000000000000000      0x466 ./Peripheral/src/ch32v30x_iwdg.o
 .debug_str     0x0000000000000000      0x708 ./Peripheral/src/ch32v30x_iwdg.o
 .comment       0x0000000000000000       0x34 ./Peripheral/src/ch32v30x_iwdg.o
 .debug_frame   0x0000000000000000       0x70 ./Peripheral/src/ch32v30x_iwdg.o
 .text          0x0000000000000000        0x0 ./Peripheral/src/ch32v30x_misc.o
 .data          0x0000000000000000        0x0 ./Peripheral/src/ch32v30x_misc.o
 .bss           0x0000000000000000        0x0 ./Peripheral/src/ch32v30x_misc.o
 .text.NVIC_PriorityGroupConfig
                0x0000000000000000        0xa ./Peripheral/src/ch32v30x_misc.o
 .text.NVIC_Init
                0x0000000000000000       0xaa ./Peripheral/src/ch32v30x_misc.o
 .sbss.NVIC_Priority_Group
                0x0000000000000000        0x4 ./Peripheral/src/ch32v30x_misc.o
 .debug_info    0x0000000000000000      0xf72 ./Peripheral/src/ch32v30x_misc.o
 .debug_abbrev  0x0000000000000000      0x2fb ./Peripheral/src/ch32v30x_misc.o
 .debug_loc     0x0000000000000000       0xce ./Peripheral/src/ch32v30x_misc.o
 .debug_aranges
                0x0000000000000000       0x28 ./Peripheral/src/ch32v30x_misc.o
 .debug_ranges  0x0000000000000000       0x48 ./Peripheral/src/ch32v30x_misc.o
 .debug_line    0x0000000000000000      0x586 ./Peripheral/src/ch32v30x_misc.o
 .debug_str     0x0000000000000000      0xd34 ./Peripheral/src/ch32v30x_misc.o
 .comment       0x0000000000000000       0x34 ./Peripheral/src/ch32v30x_misc.o
 .debug_frame   0x0000000000000000       0x30 ./Peripheral/src/ch32v30x_misc.o
 .text          0x0000000000000000        0x0 ./Peripheral/src/ch32v30x_opa.o
 .data          0x0000000000000000        0x0 ./Peripheral/src/ch32v30x_opa.o
 .bss           0x0000000000000000        0x0 ./Peripheral/src/ch32v30x_opa.o
 .text.OPA_DeInit
                0x0000000000000000        0xa ./Peripheral/src/ch32v30x_opa.o
 .text.OPA_Init
                0x0000000000000000       0x36 ./Peripheral/src/ch32v30x_opa.o
 .text.OPA_StructInit
                0x0000000000000000       0x12 ./Peripheral/src/ch32v30x_opa.o
 .text.OPA_Cmd  0x0000000000000000       0x2c ./Peripheral/src/ch32v30x_opa.o
 .debug_info    0x0000000000000000      0xb28 ./Peripheral/src/ch32v30x_opa.o
 .debug_abbrev  0x0000000000000000      0x252 ./Peripheral/src/ch32v30x_opa.o
 .debug_loc     0x0000000000000000       0x56 ./Peripheral/src/ch32v30x_opa.o
 .debug_aranges
                0x0000000000000000       0x38 ./Peripheral/src/ch32v30x_opa.o
 .debug_ranges  0x0000000000000000       0x28 ./Peripheral/src/ch32v30x_opa.o
 .debug_line    0x0000000000000000      0x513 ./Peripheral/src/ch32v30x_opa.o
 .debug_str     0x0000000000000000      0x724 ./Peripheral/src/ch32v30x_opa.o
 .comment       0x0000000000000000       0x34 ./Peripheral/src/ch32v30x_opa.o
 .debug_frame   0x0000000000000000       0x50 ./Peripheral/src/ch32v30x_opa.o
 .text          0x0000000000000000        0x0 ./Peripheral/src/ch32v30x_pwr.o
 .data          0x0000000000000000        0x0 ./Peripheral/src/ch32v30x_pwr.o
 .bss           0x0000000000000000        0x0 ./Peripheral/src/ch32v30x_pwr.o
 .text.PWR_DeInit
                0x0000000000000000       0x2c ./Peripheral/src/ch32v30x_pwr.o
 .text.PWR_BackupAccessCmd
                0x0000000000000000       0x16 ./Peripheral/src/ch32v30x_pwr.o
 .text.PWR_PVDCmd
                0x0000000000000000       0x14 ./Peripheral/src/ch32v30x_pwr.o
 .text.PWR_PVDLevelConfig
                0x0000000000000000       0x10 ./Peripheral/src/ch32v30x_pwr.o
 .text.PWR_WakeUpPinCmd
                0x0000000000000000       0x16 ./Peripheral/src/ch32v30x_pwr.o
 .text.PWR_EnterSTOPMode
                0x0000000000000000       0x68 ./Peripheral/src/ch32v30x_pwr.o
 .text.PWR_EnterSTANDBYMode
                0x0000000000000000       0x34 ./Peripheral/src/ch32v30x_pwr.o
 .text.PWR_GetFlagStatus
                0x0000000000000000        0xe ./Peripheral/src/ch32v30x_pwr.o
 .text.PWR_ClearFlag
                0x0000000000000000        0xe ./Peripheral/src/ch32v30x_pwr.o
 .text.PWR_EnterSTANDBYMode_RAM
                0x0000000000000000       0x30 ./Peripheral/src/ch32v30x_pwr.o
 .text.PWR_EnterSTANDBYMode_RAM_LV
                0x0000000000000000       0x30 ./Peripheral/src/ch32v30x_pwr.o
 .text.PWR_EnterSTANDBYMode_RAM_VBAT_EN
                0x0000000000000000       0x30 ./Peripheral/src/ch32v30x_pwr.o
 .text.PWR_EnterSTANDBYMode_RAM_LV_VBAT_EN
                0x0000000000000000       0x30 ./Peripheral/src/ch32v30x_pwr.o
 .text.PWR_EnterSTOPMode_RAM_LV
                0x0000000000000000       0x6e ./Peripheral/src/ch32v30x_pwr.o
 .debug_info    0x0000000000000000      0xf91 ./Peripheral/src/ch32v30x_pwr.o
 .debug_abbrev  0x0000000000000000      0x384 ./Peripheral/src/ch32v30x_pwr.o
 .debug_loc     0x0000000000000000      0x278 ./Peripheral/src/ch32v30x_pwr.o
 .debug_aranges
                0x0000000000000000       0x88 ./Peripheral/src/ch32v30x_pwr.o
 .debug_ranges  0x0000000000000000       0xa8 ./Peripheral/src/ch32v30x_pwr.o
 .debug_line    0x0000000000000000      0xb11 ./Peripheral/src/ch32v30x_pwr.o
 .debug_str     0x0000000000000000      0x8b6 ./Peripheral/src/ch32v30x_pwr.o
 .comment       0x0000000000000000       0x34 ./Peripheral/src/ch32v30x_pwr.o
 .debug_frame   0x0000000000000000       0xfc ./Peripheral/src/ch32v30x_pwr.o
 .text          0x0000000000000000        0x0 ./Peripheral/src/ch32v30x_rcc.o
 .data          0x0000000000000000        0x0 ./Peripheral/src/ch32v30x_rcc.o
 .bss           0x0000000000000000        0x0 ./Peripheral/src/ch32v30x_rcc.o
 .text.RCC_DeInit
                0x0000000000000000       0x52 ./Peripheral/src/ch32v30x_rcc.o
 .text.RCC_HSEConfig
                0x0000000000000000       0x3c ./Peripheral/src/ch32v30x_rcc.o
 .text.RCC_AdjustHSICalibrationValue
                0x0000000000000000       0x12 ./Peripheral/src/ch32v30x_rcc.o
 .text.RCC_HSICmd
                0x0000000000000000       0x14 ./Peripheral/src/ch32v30x_rcc.o
 .text.RCC_PLLConfig
                0x0000000000000000       0x2e ./Peripheral/src/ch32v30x_rcc.o
 .text.RCC_PLLCmd
                0x0000000000000000       0x24 ./Peripheral/src/ch32v30x_rcc.o
 .text.RCC_SYSCLKConfig
                0x0000000000000000        0xe ./Peripheral/src/ch32v30x_rcc.o
 .text.RCC_GetSYSCLKSource
                0x0000000000000000        0xa ./Peripheral/src/ch32v30x_rcc.o
 .text.RCC_HCLKConfig
                0x0000000000000000       0x10 ./Peripheral/src/ch32v30x_rcc.o
 .text.RCC_PCLK1Config
                0x0000000000000000       0x10 ./Peripheral/src/ch32v30x_rcc.o
 .text.RCC_PCLK2Config
                0x0000000000000000       0x16 ./Peripheral/src/ch32v30x_rcc.o
 .text.RCC_ITConfig
                0x0000000000000000       0x16 ./Peripheral/src/ch32v30x_rcc.o
 .text.RCC_ADCCLKConfig
                0x0000000000000000       0x12 ./Peripheral/src/ch32v30x_rcc.o
 .text.RCC_LSEConfig
                0x0000000000000000       0x28 ./Peripheral/src/ch32v30x_rcc.o
 .text.RCC_LSICmd
                0x0000000000000000       0x14 ./Peripheral/src/ch32v30x_rcc.o
 .text.RCC_RTCCLKConfig
                0x0000000000000000        0xc ./Peripheral/src/ch32v30x_rcc.o
 .text.RCC_RTCCLKCmd
                0x0000000000000000       0x20 ./Peripheral/src/ch32v30x_rcc.o
 .text.RCC_APB2PeriphResetCmd
                0x0000000000000000       0x1e ./Peripheral/src/ch32v30x_rcc.o
 .text.RCC_APB1PeriphResetCmd
                0x0000000000000000       0x1e ./Peripheral/src/ch32v30x_rcc.o
 .text.RCC_BackupResetCmd
                0x0000000000000000       0x20 ./Peripheral/src/ch32v30x_rcc.o
 .text.RCC_ClockSecuritySystemCmd
                0x0000000000000000       0x24 ./Peripheral/src/ch32v30x_rcc.o
 .text.RCC_MCOConfig
                0x0000000000000000        0x8 ./Peripheral/src/ch32v30x_rcc.o
 .text.RCC_WaitForHSEStartUp
                0x0000000000000000       0x42 ./Peripheral/src/ch32v30x_rcc.o
 .text.RCC_ClearFlag
                0x0000000000000000       0x10 ./Peripheral/src/ch32v30x_rcc.o
 .text.RCC_GetITStatus
                0x0000000000000000        0xe ./Peripheral/src/ch32v30x_rcc.o
 .text.RCC_ClearITPendingBit
                0x0000000000000000        0x8 ./Peripheral/src/ch32v30x_rcc.o
 .text.RCC_PREDIV1Config
                0x0000000000000000       0x14 ./Peripheral/src/ch32v30x_rcc.o
 .text.RCC_PLL2Config
                0x0000000000000000       0x14 ./Peripheral/src/ch32v30x_rcc.o
 .text.RCC_PLL2Cmd
                0x0000000000000000       0x24 ./Peripheral/src/ch32v30x_rcc.o
 .text.RCC_OTGFSCLKConfig
                0x0000000000000000       0x1a ./Peripheral/src/ch32v30x_rcc.o
 .text.RCC_I2S2CLKConfig
                0x0000000000000000       0x18 ./Peripheral/src/ch32v30x_rcc.o
 .text.RCC_I2S3CLKConfig
                0x0000000000000000       0x1a ./Peripheral/src/ch32v30x_rcc.o
 .text.RCC_ADCCLKADJcmd
                0x0000000000000000       0x18 ./Peripheral/src/ch32v30x_rcc.o
 .text.RCC_RNGCLKConfig
                0x0000000000000000       0x1a ./Peripheral/src/ch32v30x_rcc.o
 .text.RCC_ETH1GCLKConfig
                0x0000000000000000       0x1a ./Peripheral/src/ch32v30x_rcc.o
 .text.RCC_ETH1G_125Mcmd
                0x0000000000000000       0x24 ./Peripheral/src/ch32v30x_rcc.o
 .text.RCC_USBHSConfig
                0x0000000000000000       0x1a ./Peripheral/src/ch32v30x_rcc.o
 .text.RCC_USBHSPLLCLKConfig
                0x0000000000000000       0x1a ./Peripheral/src/ch32v30x_rcc.o
 .text.RCC_USBHSPLLCKREFCLKConfig
                0x0000000000000000       0x1a ./Peripheral/src/ch32v30x_rcc.o
 .text.RCC_USBHSPHYPLLALIVEcmd
                0x0000000000000000       0x24 ./Peripheral/src/ch32v30x_rcc.o
 .text.RCC_USBCLK48MConfig
                0x0000000000000000       0x16 ./Peripheral/src/ch32v30x_rcc.o
 .text          0x0000000000000000        0x0 ./Peripheral/src/ch32v30x_rng.o
 .data          0x0000000000000000        0x0 ./Peripheral/src/ch32v30x_rng.o
 .bss           0x0000000000000000        0x0 ./Peripheral/src/ch32v30x_rng.o
 .text.RNG_Cmd  0x0000000000000000       0x18 ./Peripheral/src/ch32v30x_rng.o
 .text.RNG_GetRandomNumber
                0x0000000000000000        0xa ./Peripheral/src/ch32v30x_rng.o
 .text.RNG_ITConfig
                0x0000000000000000       0x18 ./Peripheral/src/ch32v30x_rng.o
 .text.RNG_GetFlagStatus
                0x0000000000000000       0x12 ./Peripheral/src/ch32v30x_rng.o
 .text.RNG_ClearFlag
                0x0000000000000000       0x10 ./Peripheral/src/ch32v30x_rng.o
 .text.RNG_GetITStatus
                0x0000000000000000       0x18 ./Peripheral/src/ch32v30x_rng.o
 .text.RNG_ClearITPendingBit
                0x0000000000000000       0x12 ./Peripheral/src/ch32v30x_rng.o
 .debug_info    0x0000000000000000      0xb02 ./Peripheral/src/ch32v30x_rng.o
 .debug_abbrev  0x0000000000000000      0x2c8 ./Peripheral/src/ch32v30x_rng.o
 .debug_loc     0x0000000000000000       0xa8 ./Peripheral/src/ch32v30x_rng.o
 .debug_aranges
                0x0000000000000000       0x48 ./Peripheral/src/ch32v30x_rng.o
 .debug_ranges  0x0000000000000000       0x38 ./Peripheral/src/ch32v30x_rng.o
 .debug_line    0x0000000000000000      0x4e0 ./Peripheral/src/ch32v30x_rng.o
 .debug_str     0x0000000000000000      0x6f5 ./Peripheral/src/ch32v30x_rng.o
 .comment       0x0000000000000000       0x34 ./Peripheral/src/ch32v30x_rng.o
 .debug_frame   0x0000000000000000       0x8c ./Peripheral/src/ch32v30x_rng.o
 .text          0x0000000000000000        0x0 ./Peripheral/src/ch32v30x_rtc.o
 .data          0x0000000000000000        0x0 ./Peripheral/src/ch32v30x_rtc.o
 .bss           0x0000000000000000        0x0 ./Peripheral/src/ch32v30x_rtc.o
 .text.RTC_ITConfig
                0x0000000000000000       0x1a ./Peripheral/src/ch32v30x_rtc.o
 .text.RTC_EnterConfigMode
                0x0000000000000000       0x12 ./Peripheral/src/ch32v30x_rtc.o
 .text.RTC_ExitConfigMode
                0x0000000000000000       0x18 ./Peripheral/src/ch32v30x_rtc.o
 .text.RTC_GetCounter
                0x0000000000000000       0x36 ./Peripheral/src/ch32v30x_rtc.o
 .text.RTC_SetCounter
                0x0000000000000000       0x3c ./Peripheral/src/ch32v30x_rtc.o
 .text.RTC_SetPrescaler
                0x0000000000000000       0x3e ./Peripheral/src/ch32v30x_rtc.o
 .text.RTC_SetAlarm
                0x0000000000000000       0x3c ./Peripheral/src/ch32v30x_rtc.o
 .text.RTC_GetDivider
                0x0000000000000000       0x18 ./Peripheral/src/ch32v30x_rtc.o
 .text.RTC_WaitForLastTask
                0x0000000000000000       0x10 ./Peripheral/src/ch32v30x_rtc.o
 .text.RTC_WaitForSynchro
                0x0000000000000000       0x24 ./Peripheral/src/ch32v30x_rtc.o
 .text.RTC_GetFlagStatus
                0x0000000000000000       0x12 ./Peripheral/src/ch32v30x_rtc.o
 .text.RTC_ClearFlag
                0x0000000000000000       0x14 ./Peripheral/src/ch32v30x_rtc.o
 .text.RTC_GetITStatus
                0x0000000000000000       0x20 ./Peripheral/src/ch32v30x_rtc.o
 .text.RTC_ClearITPendingBit
                0x0000000000000000       0x18 ./Peripheral/src/ch32v30x_rtc.o
 .debug_info    0x0000000000000000      0xd4f ./Peripheral/src/ch32v30x_rtc.o
 .debug_abbrev  0x0000000000000000      0x2c0 ./Peripheral/src/ch32v30x_rtc.o
 .debug_loc     0x0000000000000000      0x272 ./Peripheral/src/ch32v30x_rtc.o
 .debug_aranges
                0x0000000000000000       0x80 ./Peripheral/src/ch32v30x_rtc.o
 .debug_ranges  0x0000000000000000       0x70 ./Peripheral/src/ch32v30x_rtc.o
 .debug_line    0x0000000000000000      0x85c ./Peripheral/src/ch32v30x_rtc.o
 .debug_str     0x0000000000000000      0x855 ./Peripheral/src/ch32v30x_rtc.o
 .comment       0x0000000000000000       0x34 ./Peripheral/src/ch32v30x_rtc.o
 .debug_frame   0x0000000000000000      0x12c ./Peripheral/src/ch32v30x_rtc.o
 .text          0x0000000000000000        0x0 ./Peripheral/src/ch32v30x_sdio.o
 .data          0x0000000000000000        0x0 ./Peripheral/src/ch32v30x_sdio.o
 .bss           0x0000000000000000        0x0 ./Peripheral/src/ch32v30x_sdio.o
 .text.SDIO_DeInit
                0x0000000000000000       0x30 ./Peripheral/src/ch32v30x_sdio.o
 .text.SDIO_Init
                0x0000000000000000       0x2a ./Peripheral/src/ch32v30x_sdio.o
 .text.SDIO_StructInit
                0x0000000000000000       0x1a ./Peripheral/src/ch32v30x_sdio.o
 .text.SDIO_ClockCmd
                0x0000000000000000       0x16 ./Peripheral/src/ch32v30x_sdio.o
 .text.SDIO_SetPowerState
                0x0000000000000000       0x12 ./Peripheral/src/ch32v30x_sdio.o
 .text.SDIO_GetPowerState
                0x0000000000000000        0xa ./Peripheral/src/ch32v30x_sdio.o
 .text.SDIO_ITConfig
                0x0000000000000000       0x1e ./Peripheral/src/ch32v30x_sdio.o
 .text.SDIO_DMACmd
                0x0000000000000000       0x14 ./Peripheral/src/ch32v30x_sdio.o
 .text.SDIO_SendCommand
                0x0000000000000000       0x22 ./Peripheral/src/ch32v30x_sdio.o
 .text.SDIO_CmdStructInit
                0x0000000000000000       0x16 ./Peripheral/src/ch32v30x_sdio.o
 .text.SDIO_GetCommandResponse
                0x0000000000000000        0xc ./Peripheral/src/ch32v30x_sdio.o
 .text.SDIO_GetResponse
                0x0000000000000000       0x16 ./Peripheral/src/ch32v30x_sdio.o
 .text.SDIO_DataConfig
                0x0000000000000000       0x26 ./Peripheral/src/ch32v30x_sdio.o
 .text.SDIO_DataStructInit
                0x0000000000000000       0x1a ./Peripheral/src/ch32v30x_sdio.o
 .text.SDIO_GetDataCounter
                0x0000000000000000        0x8 ./Peripheral/src/ch32v30x_sdio.o
 .text.SDIO_ReadData
                0x0000000000000000        0xa ./Peripheral/src/ch32v30x_sdio.o
 .text.SDIO_WriteData
                0x0000000000000000        0xa ./Peripheral/src/ch32v30x_sdio.o
 .text.SDIO_GetFIFOCount
                0x0000000000000000        0x8 ./Peripheral/src/ch32v30x_sdio.o
 .text.SDIO_StartSDIOReadWait
                0x0000000000000000       0x16 ./Peripheral/src/ch32v30x_sdio.o
 .text.SDIO_StopSDIOReadWait
                0x0000000000000000       0x16 ./Peripheral/src/ch32v30x_sdio.o
 .text.SDIO_SetSDIOReadWaitMode
                0x0000000000000000       0x16 ./Peripheral/src/ch32v30x_sdio.o
 .text.SDIO_SetSDIOOperation
                0x0000000000000000       0x1e ./Peripheral/src/ch32v30x_sdio.o
 .text.SDIO_SendSDIOSuspendCmd
                0x0000000000000000       0x1e ./Peripheral/src/ch32v30x_sdio.o
 .text.SDIO_CommandCompletionCmd
                0x0000000000000000       0x20 ./Peripheral/src/ch32v30x_sdio.o
 .text.SDIO_CEATAITCmd
                0x0000000000000000       0x20 ./Peripheral/src/ch32v30x_sdio.o
 .text.SDIO_SendCEATACmd
                0x0000000000000000       0x20 ./Peripheral/src/ch32v30x_sdio.o
 .text.SDIO_GetFlagStatus
                0x0000000000000000        0xe ./Peripheral/src/ch32v30x_sdio.o
 .text.SDIO_ClearFlag
                0x0000000000000000        0x8 ./Peripheral/src/ch32v30x_sdio.o
 .text.SDIO_GetITStatus
                0x0000000000000000       0x18 ./Peripheral/src/ch32v30x_sdio.o
 .text.SDIO_ClearITPendingBit
                0x0000000000000000        0x8 ./Peripheral/src/ch32v30x_sdio.o
 .debug_info    0x0000000000000000     0x10d1 ./Peripheral/src/ch32v30x_sdio.o
 .debug_abbrev  0x0000000000000000      0x385 ./Peripheral/src/ch32v30x_sdio.o
 .debug_loc     0x0000000000000000      0x1bb ./Peripheral/src/ch32v30x_sdio.o
 .debug_aranges
                0x0000000000000000       0xf8 ./Peripheral/src/ch32v30x_sdio.o
 .debug_ranges  0x0000000000000000       0xe8 ./Peripheral/src/ch32v30x_sdio.o
 .debug_line    0x0000000000000000      0xd50 ./Peripheral/src/ch32v30x_sdio.o
 .debug_str     0x0000000000000000      0xac7 ./Peripheral/src/ch32v30x_sdio.o
 .comment       0x0000000000000000       0x34 ./Peripheral/src/ch32v30x_sdio.o
 .debug_frame   0x0000000000000000      0x204 ./Peripheral/src/ch32v30x_sdio.o
 .text          0x0000000000000000        0x0 ./Peripheral/src/ch32v30x_spi.o
 .data          0x0000000000000000        0x0 ./Peripheral/src/ch32v30x_spi.o
 .bss           0x0000000000000000        0x0 ./Peripheral/src/ch32v30x_spi.o
 .text.SPI_I2S_DeInit
                0x0000000000000000       0x70 ./Peripheral/src/ch32v30x_spi.o
 .text.SPI_Init
                0x0000000000000000       0x3e ./Peripheral/src/ch32v30x_spi.o
 .text.I2S_Init
                0x0000000000000000       0xc6 ./Peripheral/src/ch32v30x_spi.o
 .text.SPI_StructInit
                0x0000000000000000       0x22 ./Peripheral/src/ch32v30x_spi.o
 .text.I2S_StructInit
                0x0000000000000000       0x12 ./Peripheral/src/ch32v30x_spi.o
 .text.SPI_Cmd  0x0000000000000000       0x1a ./Peripheral/src/ch32v30x_spi.o
 .text.I2S_Cmd  0x0000000000000000       0x1a ./Peripheral/src/ch32v30x_spi.o
 .text.SPI_I2S_ITConfig
                0x0000000000000000       0x1e ./Peripheral/src/ch32v30x_spi.o
 .text.SPI_I2S_DMACmd
                0x0000000000000000       0x12 ./Peripheral/src/ch32v30x_spi.o
 .text.SPI_I2S_SendData
                0x0000000000000000        0x4 ./Peripheral/src/ch32v30x_spi.o
 .text.SPI_I2S_ReceiveData
                0x0000000000000000        0x4 ./Peripheral/src/ch32v30x_spi.o
 .text.SPI_NSSInternalSoftwareConfig
                0x0000000000000000       0x24 ./Peripheral/src/ch32v30x_spi.o
 .text.SPI_SSOutputCmd
                0x0000000000000000       0x18 ./Peripheral/src/ch32v30x_spi.o
 .text.SPI_DataSizeConfig
                0x0000000000000000       0x14 ./Peripheral/src/ch32v30x_spi.o
 .text.SPI_TransmitCRC
                0x0000000000000000        0xa ./Peripheral/src/ch32v30x_spi.o
 .text.SPI_CalculateCRC
                0x0000000000000000       0x16 ./Peripheral/src/ch32v30x_spi.o
 .text.SPI_GetCRC
                0x0000000000000000       0x12 ./Peripheral/src/ch32v30x_spi.o
 .text.SPI_GetCRCPolynomial
                0x0000000000000000        0x4 ./Peripheral/src/ch32v30x_spi.o
 .text.SPI_BiDirectionalLineConfig
                0x0000000000000000       0x1a ./Peripheral/src/ch32v30x_spi.o
 .text.SPI_I2S_GetFlagStatus
                0x0000000000000000        0xa ./Peripheral/src/ch32v30x_spi.o
 .text.SPI_I2S_ClearFlag
                0x0000000000000000        0xc ./Peripheral/src/ch32v30x_spi.o
 .text.SPI_I2S_GetITStatus
                0x0000000000000000       0x28 ./Peripheral/src/ch32v30x_spi.o
 .text.SPI_I2S_ClearITPendingBit
                0x0000000000000000       0x14 ./Peripheral/src/ch32v30x_spi.o
 .debug_info    0x0000000000000000     0x12cd ./Peripheral/src/ch32v30x_spi.o
 .debug_abbrev  0x0000000000000000      0x312 ./Peripheral/src/ch32v30x_spi.o
 .debug_loc     0x0000000000000000      0x598 ./Peripheral/src/ch32v30x_spi.o
 .debug_aranges
                0x0000000000000000       0xd0 ./Peripheral/src/ch32v30x_spi.o
 .debug_ranges  0x0000000000000000       0xc0 ./Peripheral/src/ch32v30x_spi.o
 .debug_line    0x0000000000000000      0xde5 ./Peripheral/src/ch32v30x_spi.o
 .debug_str     0x0000000000000000      0xaf8 ./Peripheral/src/ch32v30x_spi.o
 .comment       0x0000000000000000       0x34 ./Peripheral/src/ch32v30x_spi.o
 .debug_frame   0x0000000000000000      0x1a8 ./Peripheral/src/ch32v30x_spi.o
 .text          0x0000000000000000        0x0 ./Peripheral/src/ch32v30x_tim.o
 .data          0x0000000000000000        0x0 ./Peripheral/src/ch32v30x_tim.o
 .bss           0x0000000000000000        0x0 ./Peripheral/src/ch32v30x_tim.o
 .text.TI1_Config
                0x0000000000000000       0x82 ./Peripheral/src/ch32v30x_tim.o
 .text.TI2_Config
                0x0000000000000000       0x9a ./Peripheral/src/ch32v30x_tim.o
 .text.TIM_DeInit
                0x0000000000000000      0x138 ./Peripheral/src/ch32v30x_tim.o
 .text.TIM_OC1Init
                0x0000000000000000       0x82 ./Peripheral/src/ch32v30x_tim.o
 .text.TIM_OC2Init
                0x0000000000000000       0xae ./Peripheral/src/ch32v30x_tim.o
 .text.TIM_OC3Init
                0x0000000000000000       0xac ./Peripheral/src/ch32v30x_tim.o
 .text.TIM_OC4Init
                0x0000000000000000       0x88 ./Peripheral/src/ch32v30x_tim.o
 .text.TIM_BDTRConfig
                0x0000000000000000       0x20 ./Peripheral/src/ch32v30x_tim.o
 .text.TIM_TimeBaseStructInit
                0x0000000000000000       0x16 ./Peripheral/src/ch32v30x_tim.o
 .text.TIM_OCStructInit
                0x0000000000000000       0x22 ./Peripheral/src/ch32v30x_tim.o
 .text.TIM_ICStructInit
                0x0000000000000000       0x16 ./Peripheral/src/ch32v30x_tim.o
 .text.TIM_BDTRStructInit
                0x0000000000000000       0x1e ./Peripheral/src/ch32v30x_tim.o
 .text.TIM_CtrlPWMOutputs
                0x0000000000000000       0x16 ./Peripheral/src/ch32v30x_tim.o
 .text.TIM_GenerateEvent
                0x0000000000000000        0x4 ./Peripheral/src/ch32v30x_tim.o
 .text.TIM_DMAConfig
                0x0000000000000000        0x8 ./Peripheral/src/ch32v30x_tim.o
 .text.TIM_DMACmd
                0x0000000000000000       0x18 ./Peripheral/src/ch32v30x_tim.o
 .text.TIM_InternalClockConfig
                0x0000000000000000       0x10 ./Peripheral/src/ch32v30x_tim.o
 .text.TIM_ITRxExternalClockConfig
                0x0000000000000000       0x18 ./Peripheral/src/ch32v30x_tim.o
 .text.TIM_TIxExternalClockConfig
                0x0000000000000000       0x48 ./Peripheral/src/ch32v30x_tim.o
 .text.TIM_ETRConfig
                0x0000000000000000       0x16 ./Peripheral/src/ch32v30x_tim.o
 .text.TIM_ETRClockMode1Config
                0x0000000000000000       0x2a ./Peripheral/src/ch32v30x_tim.o
 .text.TIM_ETRClockMode2Config
                0x0000000000000000       0x22 ./Peripheral/src/ch32v30x_tim.o
 .text.TIM_PrescalerConfig
                0x0000000000000000        0x6 ./Peripheral/src/ch32v30x_tim.o
 .text.TIM_CounterModeConfig
                0x0000000000000000       0x10 ./Peripheral/src/ch32v30x_tim.o
 .text.TIM_SelectInputTrigger
                0x0000000000000000       0x10 ./Peripheral/src/ch32v30x_tim.o
 .text.TIM_EncoderInterfaceConfig
                0x0000000000000000       0x3c ./Peripheral/src/ch32v30x_tim.o
 .text.TIM_ForcedOC1Config
                0x0000000000000000       0x10 ./Peripheral/src/ch32v30x_tim.o
 .text.TIM_ForcedOC2Config
                0x0000000000000000       0x14 ./Peripheral/src/ch32v30x_tim.o
 .text.TIM_ForcedOC3Config
                0x0000000000000000       0x10 ./Peripheral/src/ch32v30x_tim.o
 .text.TIM_ForcedOC4Config
                0x0000000000000000       0x14 ./Peripheral/src/ch32v30x_tim.o
 .text.TIM_ARRPreloadConfig
                0x0000000000000000       0x1a ./Peripheral/src/ch32v30x_tim.o
 .text.TIM_SelectCOM
                0x0000000000000000       0x18 ./Peripheral/src/ch32v30x_tim.o
 .text.TIM_SelectCCDMA
                0x0000000000000000       0x18 ./Peripheral/src/ch32v30x_tim.o
 .text.TIM_CCPreloadControl
                0x0000000000000000       0x18 ./Peripheral/src/ch32v30x_tim.o
 .text.TIM_OC1PreloadConfig
                0x0000000000000000        0xe ./Peripheral/src/ch32v30x_tim.o
 .text.TIM_OC2PreloadConfig
                0x0000000000000000       0x16 ./Peripheral/src/ch32v30x_tim.o
 .text.TIM_OC3PreloadConfig
                0x0000000000000000        0xe ./Peripheral/src/ch32v30x_tim.o
 .text.TIM_OC4PreloadConfig
                0x0000000000000000       0x16 ./Peripheral/src/ch32v30x_tim.o
 .text.TIM_OC1FastConfig
                0x0000000000000000        0xe ./Peripheral/src/ch32v30x_tim.o
 .text.TIM_OC2FastConfig
                0x0000000000000000       0x16 ./Peripheral/src/ch32v30x_tim.o
 .text.TIM_OC3FastConfig
                0x0000000000000000        0xe ./Peripheral/src/ch32v30x_tim.o
 .text.TIM_OC4FastConfig
                0x0000000000000000       0x16 ./Peripheral/src/ch32v30x_tim.o
 .text.TIM_ClearOC1Ref
                0x0000000000000000       0x10 ./Peripheral/src/ch32v30x_tim.o
 .text.TIM_ClearOC2Ref
                0x0000000000000000       0x12 ./Peripheral/src/ch32v30x_tim.o
 .text.TIM_ClearOC3Ref
                0x0000000000000000       0x10 ./Peripheral/src/ch32v30x_tim.o
 .text.TIM_ClearOC4Ref
                0x0000000000000000       0x12 ./Peripheral/src/ch32v30x_tim.o
 .text.TIM_OC1PolarityConfig
                0x0000000000000000        0xe ./Peripheral/src/ch32v30x_tim.o
 .text.TIM_OC1NPolarityConfig
                0x0000000000000000        0xe ./Peripheral/src/ch32v30x_tim.o
 .text.TIM_OC2PolarityConfig
                0x0000000000000000       0x16 ./Peripheral/src/ch32v30x_tim.o
 .text.TIM_OC2NPolarityConfig
                0x0000000000000000       0x16 ./Peripheral/src/ch32v30x_tim.o
 .text.TIM_OC3PolarityConfig
                0x0000000000000000       0x16 ./Peripheral/src/ch32v30x_tim.o
 .text.TIM_OC3NPolarityConfig
                0x0000000000000000       0x16 ./Peripheral/src/ch32v30x_tim.o
 .text.TIM_OC4PolarityConfig
                0x0000000000000000       0x14 ./Peripheral/src/ch32v30x_tim.o
 .text.TIM_CCxCmd
                0x0000000000000000       0x20 ./Peripheral/src/ch32v30x_tim.o
 .text.TIM_CCxNCmd
                0x0000000000000000       0x20 ./Peripheral/src/ch32v30x_tim.o
 .text.TIM_SelectOCxM
                0x0000000000000000       0x4c ./Peripheral/src/ch32v30x_tim.o
 .text.TIM_UpdateDisableConfig
                0x0000000000000000       0x18 ./Peripheral/src/ch32v30x_tim.o
 .text.TIM_UpdateRequestConfig
                0x0000000000000000       0x18 ./Peripheral/src/ch32v30x_tim.o
 .text.TIM_SelectHallSensor
                0x0000000000000000       0x1a ./Peripheral/src/ch32v30x_tim.o
 .text.TIM_SelectOnePulseMode
                0x0000000000000000       0x16 ./Peripheral/src/ch32v30x_tim.o
 .text.TIM_SelectOutputTrigger
                0x0000000000000000       0x18 ./Peripheral/src/ch32v30x_tim.o
 .text.TIM_SelectSlaveMode
                0x0000000000000000       0x16 ./Peripheral/src/ch32v30x_tim.o
 .text.TIM_SelectMasterSlaveMode
                0x0000000000000000       0x18 ./Peripheral/src/ch32v30x_tim.o
 .text.TIM_SetCounter
                0x0000000000000000        0x4 ./Peripheral/src/ch32v30x_tim.o
 .text.TIM_SetAutoreload
                0x0000000000000000        0x4 ./Peripheral/src/ch32v30x_tim.o
 .text.TIM_SetCompare1
                0x0000000000000000        0x4 ./Peripheral/src/ch32v30x_tim.o
 .text.TIM_SetCompare2
                0x0000000000000000        0x4 ./Peripheral/src/ch32v30x_tim.o
 .text.TIM_SetCompare3
                0x0000000000000000        0x4 ./Peripheral/src/ch32v30x_tim.o
 .text.TIM_SetCompare4
                0x0000000000000000        0x6 ./Peripheral/src/ch32v30x_tim.o
 .text.TIM_SetIC1Prescaler
                0x0000000000000000       0x16 ./Peripheral/src/ch32v30x_tim.o
 .text.TIM_SetIC2Prescaler
                0x0000000000000000       0x1a ./Peripheral/src/ch32v30x_tim.o
 .text.TIM_PWMIConfig
                0x0000000000000000       0x92 ./Peripheral/src/ch32v30x_tim.o
 .text.TIM_SetIC3Prescaler
                0x0000000000000000       0x16 ./Peripheral/src/ch32v30x_tim.o
 .text.TIM_SetIC4Prescaler
                0x0000000000000000       0x1a ./Peripheral/src/ch32v30x_tim.o
 .text.TIM_ICInit
                0x0000000000000000      0x1c0 ./Peripheral/src/ch32v30x_tim.o
 .text.TIM_SetClockDivision
                0x0000000000000000       0x18 ./Peripheral/src/ch32v30x_tim.o
 .text.TIM_GetCapture1
                0x0000000000000000        0x4 ./Peripheral/src/ch32v30x_tim.o
 .text.TIM_GetCapture2
                0x0000000000000000        0x4 ./Peripheral/src/ch32v30x_tim.o
 .text.TIM_GetCapture3
                0x0000000000000000        0x4 ./Peripheral/src/ch32v30x_tim.o
 .text.TIM_GetCapture4
                0x0000000000000000        0x6 ./Peripheral/src/ch32v30x_tim.o
 .text.TIM_GetCounter
                0x0000000000000000        0x4 ./Peripheral/src/ch32v30x_tim.o
 .text.TIM_GetPrescaler
                0x0000000000000000        0x4 ./Peripheral/src/ch32v30x_tim.o
 .text.TIM_GetFlagStatus
                0x0000000000000000        0xa ./Peripheral/src/ch32v30x_tim.o
 .text.TIM_ClearFlag
                0x0000000000000000        0xc ./Peripheral/src/ch32v30x_tim.o
 .text.TIM_GetITStatus
                0x0000000000000000       0x18 ./Peripheral/src/ch32v30x_tim.o
 .text          0x0000000000000000        0x0 ./Peripheral/src/ch32v30x_usart.o
 .data          0x0000000000000000        0x0 ./Peripheral/src/ch32v30x_usart.o
 .bss           0x0000000000000000        0x0 ./Peripheral/src/ch32v30x_usart.o
 .text.USART_DeInit
                0x0000000000000000      0x112 ./Peripheral/src/ch32v30x_usart.o
 .text.USART_StructInit
                0x0000000000000000       0x18 ./Peripheral/src/ch32v30x_usart.o
 .text.USART_ClockInit
                0x0000000000000000       0x1e ./Peripheral/src/ch32v30x_usart.o
 .text.USART_ClockStructInit
                0x0000000000000000       0x12 ./Peripheral/src/ch32v30x_usart.o
 .text.USART_ITConfig
                0x0000000000000000       0x36 ./Peripheral/src/ch32v30x_usart.o
 .text.USART_DMACmd
                0x0000000000000000       0x12 ./Peripheral/src/ch32v30x_usart.o
 .text.USART_SetAddress
                0x0000000000000000       0x16 ./Peripheral/src/ch32v30x_usart.o
 .text.USART_WakeUpConfig
                0x0000000000000000       0x14 ./Peripheral/src/ch32v30x_usart.o
 .text.USART_ReceiverWakeUpCmd
                0x0000000000000000       0x18 ./Peripheral/src/ch32v30x_usart.o
 .text.USART_LINBreakDetectLengthConfig
                0x0000000000000000       0x18 ./Peripheral/src/ch32v30x_usart.o
 .text.USART_LINCmd
                0x0000000000000000       0x16 ./Peripheral/src/ch32v30x_usart.o
 .text.USART_ReceiveData
                0x0000000000000000        0x8 ./Peripheral/src/ch32v30x_usart.o
 .text.USART_SendBreak
                0x0000000000000000        0xa ./Peripheral/src/ch32v30x_usart.o
 .text.USART_SetGuardTime
                0x0000000000000000       0x12 ./Peripheral/src/ch32v30x_usart.o
 .text.USART_SetPrescaler
                0x0000000000000000       0x18 ./Peripheral/src/ch32v30x_usart.o
 .text.USART_SmartCardCmd
                0x0000000000000000       0x1a ./Peripheral/src/ch32v30x_usart.o
 .text.USART_SmartCardNACKCmd
                0x0000000000000000       0x18 ./Peripheral/src/ch32v30x_usart.o
 .text.USART_HalfDuplexCmd
                0x0000000000000000       0x18 ./Peripheral/src/ch32v30x_usart.o
 .text.USART_OverSampling8Cmd
                0x0000000000000000       0x12 ./Peripheral/src/ch32v30x_usart.o
 .text.USART_OneBitMethodCmd
                0x0000000000000000       0x1e ./Peripheral/src/ch32v30x_usart.o
 .text.USART_IrDAConfig
                0x0000000000000000       0x16 ./Peripheral/src/ch32v30x_usart.o
 .text.USART_IrDACmd
                0x0000000000000000       0x18 ./Peripheral/src/ch32v30x_usart.o
 .text.USART_ClearFlag
                0x0000000000000000        0xc ./Peripheral/src/ch32v30x_usart.o
 .text.USART_GetITStatus
                0x0000000000000000       0x3c ./Peripheral/src/ch32v30x_usart.o
 .text.USART_ClearITPendingBit
                0x0000000000000000       0x14 ./Peripheral/src/ch32v30x_usart.o
 .text          0x0000000000000000        0x0 ./Peripheral/src/ch32v30x_wwdg.o
 .data          0x0000000000000000        0x0 ./Peripheral/src/ch32v30x_wwdg.o
 .bss           0x0000000000000000        0x0 ./Peripheral/src/ch32v30x_wwdg.o
 .text.WWDG_DeInit
                0x0000000000000000       0x2e ./Peripheral/src/ch32v30x_wwdg.o
 .text.WWDG_SetPrescaler
                0x0000000000000000       0x14 ./Peripheral/src/ch32v30x_wwdg.o
 .text.WWDG_SetWindowValue
                0x0000000000000000       0x26 ./Peripheral/src/ch32v30x_wwdg.o
 .text.WWDG_EnableIT
                0x0000000000000000       0x12 ./Peripheral/src/ch32v30x_wwdg.o
 .text.WWDG_SetCounter
                0x0000000000000000        0xe ./Peripheral/src/ch32v30x_wwdg.o
 .text.WWDG_Enable
                0x0000000000000000        0xe ./Peripheral/src/ch32v30x_wwdg.o
 .text.WWDG_GetFlagStatus
                0x0000000000000000        0xa ./Peripheral/src/ch32v30x_wwdg.o
 .text.WWDG_ClearFlag
                0x0000000000000000        0xa ./Peripheral/src/ch32v30x_wwdg.o
 .debug_info    0x0000000000000000      0xb28 ./Peripheral/src/ch32v30x_wwdg.o
 .debug_abbrev  0x0000000000000000      0x29d ./Peripheral/src/ch32v30x_wwdg.o
 .debug_loc     0x0000000000000000       0xae ./Peripheral/src/ch32v30x_wwdg.o
 .debug_aranges
                0x0000000000000000       0x58 ./Peripheral/src/ch32v30x_wwdg.o
 .debug_ranges  0x0000000000000000       0x48 ./Peripheral/src/ch32v30x_wwdg.o
 .debug_line    0x0000000000000000      0x54e ./Peripheral/src/ch32v30x_wwdg.o
 .debug_str     0x0000000000000000      0x71b ./Peripheral/src/ch32v30x_wwdg.o
 .comment       0x0000000000000000       0x34 ./Peripheral/src/ch32v30x_wwdg.o
 .debug_frame   0x0000000000000000       0xa4 ./Peripheral/src/ch32v30x_wwdg.o
 .text          0x0000000000000000        0x0 ./NetLib/eth_driver.o
 .data          0x0000000000000000        0x0 ./NetLib/eth_driver.o
 .bss           0x0000000000000000        0x0 ./NetLib/eth_driver.o
 .text          0x0000000000000000        0x0 ./HTTP/HTTPS.o
 .data          0x0000000000000000        0x0 ./HTTP/HTTPS.o
 .bss           0x0000000000000000        0x0 ./HTTP/HTTPS.o
 .text          0x0000000000000000        0x0 ./Debug/debug.o
 .data          0x0000000000000000        0x0 ./Debug/debug.o
 .bss           0x0000000000000000        0x0 ./Debug/debug.o
 .text          0x0000000000000000        0x0 ./Core/core_riscv.o
 .data          0x0000000000000000        0x0 ./Core/core_riscv.o
 .bss           0x0000000000000000        0x0 ./Core/core_riscv.o
 .text.__get_FFLAGS
                0x0000000000000000        0x6 ./Core/core_riscv.o
 .text.__set_FFLAGS
                0x0000000000000000        0x6 ./Core/core_riscv.o
 .text.__get_FRM
                0x0000000000000000        0x6 ./Core/core_riscv.o
 .text.__set_FRM
                0x0000000000000000        0x6 ./Core/core_riscv.o
 .text.__get_FCSR
                0x0000000000000000        0x6 ./Core/core_riscv.o
 .text.__set_FCSR
                0x0000000000000000        0x6 ./Core/core_riscv.o
 .text.__get_MSTATUS
                0x0000000000000000        0x6 ./Core/core_riscv.o
 .text.__set_MSTATUS
                0x0000000000000000        0x6 ./Core/core_riscv.o
 .text.__get_MISA
                0x0000000000000000        0x6 ./Core/core_riscv.o
 .text.__set_MISA
                0x0000000000000000        0x6 ./Core/core_riscv.o
 .text.__get_MTVEC
                0x0000000000000000        0x6 ./Core/core_riscv.o
 .text.__set_MTVEC
                0x0000000000000000        0x6 ./Core/core_riscv.o
 .text.__get_MSCRATCH
                0x0000000000000000        0x6 ./Core/core_riscv.o
 .text.__set_MSCRATCH
                0x0000000000000000        0x6 ./Core/core_riscv.o
 .text.__set_MEPC
                0x0000000000000000        0x6 ./Core/core_riscv.o
 .text.__set_MCAUSE
                0x0000000000000000        0x6 ./Core/core_riscv.o
 .text.__set_MTVAL
                0x0000000000000000        0x6 ./Core/core_riscv.o
 .text.__get_MVENDORID
                0x0000000000000000        0x6 ./Core/core_riscv.o
 .text.__get_MARCHID
                0x0000000000000000        0x6 ./Core/core_riscv.o
 .text.__get_MIMPID
                0x0000000000000000        0x6 ./Core/core_riscv.o
 .text.__get_MHARTID
                0x0000000000000000        0x6 ./Core/core_riscv.o
 .text.__get_SP
                0x0000000000000000        0x4 ./Core/core_riscv.o
 .text          0x0000000000000000        0x0 E:\VSCode\ArduinoProjects\Datasheets\CH32\CH32V307\CH32V307_EVT\Examples\ETH\NetLib\libwchnet.a(eth_api.o)
 .data          0x0000000000000000        0x0 E:\VSCode\ArduinoProjects\Datasheets\CH32\CH32V307\CH32V307_EVT\Examples\ETH\NetLib\libwchnet.a(eth_api.o)
 .bss           0x0000000000000000        0x0 E:\VSCode\ArduinoProjects\Datasheets\CH32\CH32V307\CH32V307_EVT\Examples\ETH\NetLib\libwchnet.a(eth_api.o)
 .text          0x0000000000000000        0x0 E:\VSCode\ArduinoProjects\Datasheets\CH32\CH32V307\CH32V307_EVT\Examples\ETH\NetLib\libwchnet.a(ipcheck.o)
 .data          0x0000000000000000        0x0 E:\VSCode\ArduinoProjects\Datasheets\CH32\CH32V307\CH32V307_EVT\Examples\ETH\NetLib\libwchnet.a(ipcheck.o)
 .bss           0x0000000000000000        0x0 E:\VSCode\ArduinoProjects\Datasheets\CH32\CH32V307\CH32V307_EVT\Examples\ETH\NetLib\libwchnet.a(ipcheck.o)
 .text          0x0000000000000000        0x0 E:\VSCode\ArduinoProjects\Datasheets\CH32\CH32V307\CH32V307_EVT\Examples\ETH\NetLib\libwchnet.a(net_dhcp.o)
 .data          0x0000000000000000        0x0 E:\VSCode\ArduinoProjects\Datasheets\CH32\CH32V307\CH32V307_EVT\Examples\ETH\NetLib\libwchnet.a(net_dhcp.o)
 .bss           0x0000000000000000        0x0 E:\VSCode\ArduinoProjects\Datasheets\CH32\CH32V307\CH32V307_EVT\Examples\ETH\NetLib\libwchnet.a(net_dhcp.o)
 .text.WCHNET_DHCPStart
                0x0000000000000000       0x6a E:\VSCode\ArduinoProjects\Datasheets\CH32\CH32V307\CH32V307_EVT\Examples\ETH\NetLib\libwchnet.a(net_dhcp.o)
 .text.WCHNET_DHCPStop
                0x0000000000000000       0x36 E:\VSCode\ArduinoProjects\Datasheets\CH32\CH32V307\CH32V307_EVT\Examples\ETH\NetLib\libwchnet.a(net_dhcp.o)
 .text.WCHNET_DHCPHandle
                0x0000000000000000       0x86 E:\VSCode\ArduinoProjects\Datasheets\CH32\CH32V307\CH32V307_EVT\Examples\ETH\NetLib\libwchnet.a(net_dhcp.o)
 .text.WCHNET_DHCPSetHostname
                0x0000000000000000       0x24 E:\VSCode\ArduinoProjects\Datasheets\CH32\CH32V307\CH32V307_EVT\Examples\ETH\NetLib\libwchnet.a(net_dhcp.o)
 .sbss.DHCPFlag
                0x0000000000000000        0x1 E:\VSCode\ArduinoProjects\Datasheets\CH32\CH32V307\CH32V307_EVT\Examples\ETH\NetLib\libwchnet.a(net_dhcp.o)
 .text          0x0000000000000000        0x0 E:\VSCode\ArduinoProjects\Datasheets\CH32\CH32V307\CH32V307_EVT\Examples\ETH\NetLib\libwchnet.a(net_dns.o)
 .data          0x0000000000000000        0x0 E:\VSCode\ArduinoProjects\Datasheets\CH32\CH32V307\CH32V307_EVT\Examples\ETH\NetLib\libwchnet.a(net_dns.o)
 .bss           0x0000000000000000        0x0 E:\VSCode\ArduinoProjects\Datasheets\CH32\CH32V307\CH32V307_EVT\Examples\ETH\NetLib\libwchnet.a(net_dns.o)
 .text.WCHNET_InitDNS
                0x0000000000000000       0x4c E:\VSCode\ArduinoProjects\Datasheets\CH32\CH32V307\CH32V307_EVT\Examples\ETH\NetLib\libwchnet.a(net_dns.o)
 .text.WCHNET_DNSStop
                0x0000000000000000       0x18 E:\VSCode\ArduinoProjects\Datasheets\CH32\CH32V307\CH32V307_EVT\Examples\ETH\NetLib\libwchnet.a(net_dns.o)
 .text.WCHNET_HostNameGetIp
                0x0000000000000000       0x20 E:\VSCode\ArduinoProjects\Datasheets\CH32\CH32V307\CH32V307_EVT\Examples\ETH\NetLib\libwchnet.a(net_dns.o)
 .text          0x0000000000000000        0x0 E:\VSCode\ArduinoProjects\Datasheets\CH32\CH32V307\CH32V307_EVT\Examples\ETH\NetLib\libwchnet.a(socket.o)
 .data          0x0000000000000000        0x0 E:\VSCode\ArduinoProjects\Datasheets\CH32\CH32V307\CH32V307_EVT\Examples\ETH\NetLib\libwchnet.a(socket.o)
 .bss           0x0000000000000000        0x0 E:\VSCode\ArduinoProjects\Datasheets\CH32\CH32V307\CH32V307_EVT\Examples\ETH\NetLib\libwchnet.a(socket.o)
 .text.MemShortCopy
                0x0000000000000000       0x1e E:\VSCode\ArduinoProjects\Datasheets\CH32\CH32V307\CH32V307_EVT\Examples\ETH\NetLib\libwchnet.a(socket.o)
 .text.WCHNET_ConfigKeepLive
                0x0000000000000000       0x16 E:\VSCode\ArduinoProjects\Datasheets\CH32\CH32V307\CH32V307_EVT\Examples\ETH\NetLib\libwchnet.a(socket.o)
 .text.WCHNET_SocketUdpSendTo
                0x0000000000000000       0xe6 E:\VSCode\ArduinoProjects\Datasheets\CH32\CH32V307\CH32V307_EVT\Examples\ETH\NetLib\libwchnet.a(socket.o)
 .text.WCHNET_RetrySendUnack
                0x0000000000000000       0x3e E:\VSCode\ArduinoProjects\Datasheets\CH32\CH32V307\CH32V307_EVT\Examples\ETH\NetLib\libwchnet.a(socket.o)
 .text.WCHNET_QueryUnack
                0x0000000000000000       0xaa E:\VSCode\ArduinoProjects\Datasheets\CH32\CH32V307\CH32V307_EVT\Examples\ETH\NetLib\libwchnet.a(socket.o)
 .text.WCHNET_PrtSocketTCPStat
                0x0000000000000000        0x2 E:\VSCode\ArduinoProjects\Datasheets\CH32\CH32V307\CH32V307_EVT\Examples\ETH\NetLib\libwchnet.a(socket.o)
 .text.WCHNET_SocketSetKeepLive
                0x0000000000000000       0x54 E:\VSCode\ArduinoProjects\Datasheets\CH32\CH32V307\CH32V307_EVT\Examples\ETH\NetLib\libwchnet.a(socket.o)
 .text.WCHSocketTcpDiscon
                0x0000000000000000       0x42 E:\VSCode\ArduinoProjects\Datasheets\CH32\CH32V307\CH32V307_EVT\Examples\ETH\NetLib\libwchnet.a(socket.o)
 .text.WCHNET_Aton
                0x0000000000000000       0x1c E:\VSCode\ArduinoProjects\Datasheets\CH32\CH32V307\CH32V307_EVT\Examples\ETH\NetLib\libwchnet.a(socket.o)
 .text.WCHNET_Ntoa
                0x0000000000000000       0x2c E:\VSCode\ArduinoProjects\Datasheets\CH32\CH32V307\CH32V307_EVT\Examples\ETH\NetLib\libwchnet.a(socket.o)
 .text.WCHNET_SetSocketTTL
                0x0000000000000000       0x40 E:\VSCode\ArduinoProjects\Datasheets\CH32\CH32V307\CH32V307_EVT\Examples\ETH\NetLib\libwchnet.a(socket.o)
 .text          0x0000000000000000        0x0 E:\VSCode\ArduinoProjects\Datasheets\CH32\CH32V307\CH32V307_EVT\Examples\ETH\NetLib\libwchnet.a(etharp.o)
 .data          0x0000000000000000        0x0 E:\VSCode\ArduinoProjects\Datasheets\CH32\CH32V307\CH32V307_EVT\Examples\ETH\NetLib\libwchnet.a(etharp.o)
 .bss           0x0000000000000000        0x0 E:\VSCode\ArduinoProjects\Datasheets\CH32\CH32V307\CH32V307_EVT\Examples\ETH\NetLib\libwchnet.a(etharp.o)
 .text.etharp_find_addr
                0x0000000000000000       0x50 E:\VSCode\ArduinoProjects\Datasheets\CH32\CH32V307\CH32V307_EVT\Examples\ETH\NetLib\libwchnet.a(etharp.o)
 .text.GET_MAC  0x0000000000000000       0x68 E:\VSCode\ArduinoProjects\Datasheets\CH32\CH32V307\CH32V307_EVT\Examples\ETH\NetLib\libwchnet.a(etharp.o)
 .text          0x0000000000000000        0x0 E:\VSCode\ArduinoProjects\Datasheets\CH32\CH32V307\CH32V307_EVT\Examples\ETH\NetLib\libwchnet.a(ethernetif.o)
 .data          0x0000000000000000        0x0 E:\VSCode\ArduinoProjects\Datasheets\CH32\CH32V307\CH32V307_EVT\Examples\ETH\NetLib\libwchnet.a(ethernetif.o)
 .bss           0x0000000000000000        0x0 E:\VSCode\ArduinoProjects\Datasheets\CH32\CH32V307\CH32V307_EVT\Examples\ETH\NetLib\libwchnet.a(ethernetif.o)
 .text          0x0000000000000000        0x0 E:\VSCode\ArduinoProjects\Datasheets\CH32\CH32V307\CH32V307_EVT\Examples\ETH\NetLib\libwchnet.a(inet.o)
 .data          0x0000000000000000        0x0 E:\VSCode\ArduinoProjects\Datasheets\CH32\CH32V307\CH32V307_EVT\Examples\ETH\NetLib\libwchnet.a(inet.o)
 .bss           0x0000000000000000        0x0 E:\VSCode\ArduinoProjects\Datasheets\CH32\CH32V307\CH32V307_EVT\Examples\ETH\NetLib\libwchnet.a(inet.o)
 .text.inet_ntoa
                0x0000000000000000       0x8c E:\VSCode\ArduinoProjects\Datasheets\CH32\CH32V307\CH32V307_EVT\Examples\ETH\NetLib\libwchnet.a(inet.o)
 .text.inet_aton
                0x0000000000000000      0x160 E:\VSCode\ArduinoProjects\Datasheets\CH32\CH32V307\CH32V307_EVT\Examples\ETH\NetLib\libwchnet.a(inet.o)
 .text.inet_addr
                0x0000000000000000       0x26 E:\VSCode\ArduinoProjects\Datasheets\CH32\CH32V307\CH32V307_EVT\Examples\ETH\NetLib\libwchnet.a(inet.o)
 .bss.str.1794  0x0000000000000000       0x10 E:\VSCode\ArduinoProjects\Datasheets\CH32\CH32V307\CH32V307_EVT\Examples\ETH\NetLib\libwchnet.a(inet.o)
 .text          0x0000000000000000        0x0 E:\VSCode\ArduinoProjects\Datasheets\CH32\CH32V307\CH32V307_EVT\Examples\ETH\NetLib\libwchnet.a(ip.o)
 .data          0x0000000000000000        0x0 E:\VSCode\ArduinoProjects\Datasheets\CH32\CH32V307\CH32V307_EVT\Examples\ETH\NetLib\libwchnet.a(ip.o)
 .bss           0x0000000000000000        0x0 E:\VSCode\ArduinoProjects\Datasheets\CH32\CH32V307\CH32V307_EVT\Examples\ETH\NetLib\libwchnet.a(ip.o)
 .text          0x0000000000000000        0x0 E:\VSCode\ArduinoProjects\Datasheets\CH32\CH32V307\CH32V307_EVT\Examples\ETH\NetLib\libwchnet.a(ip_addr.o)
 .data          0x0000000000000000        0x0 E:\VSCode\ArduinoProjects\Datasheets\CH32\CH32V307\CH32V307_EVT\Examples\ETH\NetLib\libwchnet.a(ip_addr.o)
 .bss           0x0000000000000000        0x0 E:\VSCode\ArduinoProjects\Datasheets\CH32\CH32V307\CH32V307_EVT\Examples\ETH\NetLib\libwchnet.a(ip_addr.o)
 .text          0x0000000000000000        0x0 E:\VSCode\ArduinoProjects\Datasheets\CH32\CH32V307\CH32V307_EVT\Examples\ETH\NetLib\libwchnet.a(ip_frag.o)
 .data          0x0000000000000000        0x0 E:\VSCode\ArduinoProjects\Datasheets\CH32\CH32V307\CH32V307_EVT\Examples\ETH\NetLib\libwchnet.a(ip_frag.o)
 .bss           0x0000000000000000        0x0 E:\VSCode\ArduinoProjects\Datasheets\CH32\CH32V307\CH32V307_EVT\Examples\ETH\NetLib\libwchnet.a(ip_frag.o)
 .text          0x0000000000000000        0x0 E:\VSCode\ArduinoProjects\Datasheets\CH32\CH32V307\CH32V307_EVT\Examples\ETH\NetLib\libwchnet.a(dhcp.o)
 .data          0x0000000000000000        0x0 E:\VSCode\ArduinoProjects\Datasheets\CH32\CH32V307\CH32V307_EVT\Examples\ETH\NetLib\libwchnet.a(dhcp.o)
 .bss           0x0000000000000000        0x0 E:\VSCode\ArduinoProjects\Datasheets\CH32\CH32V307\CH32V307_EVT\Examples\ETH\NetLib\libwchnet.a(dhcp.o)
 .text.dhcp_option_short
                0x0000000000000000       0x24 E:\VSCode\ArduinoProjects\Datasheets\CH32\CH32V307\CH32V307_EVT\Examples\ETH\NetLib\libwchnet.a(dhcp.o)
 .text.dhcp_get_option_ptr
                0x0000000000000000       0xb6 E:\VSCode\ArduinoProjects\Datasheets\CH32\CH32V307\CH32V307_EVT\Examples\ETH\NetLib\libwchnet.a(dhcp.o)
 .text.dhcp_get_option_long
                0x0000000000000000       0x18 E:\VSCode\ArduinoProjects\Datasheets\CH32\CH32V307\CH32V307_EVT\Examples\ETH\NetLib\libwchnet.a(dhcp.o)
 .text.dhcp_rebind
                0x0000000000000000      0x116 E:\VSCode\ArduinoProjects\Datasheets\CH32\CH32V307\CH32V307_EVT\Examples\ETH\NetLib\libwchnet.a(dhcp.o)
 .text.dhcp_discover
                0x0000000000000000      0x14a E:\VSCode\ArduinoProjects\Datasheets\CH32\CH32V307\CH32V307_EVT\Examples\ETH\NetLib\libwchnet.a(dhcp.o)
 .text.dhcp_select
                0x0000000000000000      0x1b0 E:\VSCode\ArduinoProjects\Datasheets\CH32\CH32V307\CH32V307_EVT\Examples\ETH\NetLib\libwchnet.a(dhcp.o)
 .text.dhcp_reboot
                0x0000000000000000      0x104 E:\VSCode\ArduinoProjects\Datasheets\CH32\CH32V307\CH32V307_EVT\Examples\ETH\NetLib\libwchnet.a(dhcp.o)
 .text.dhcp_check
                0x0000000000000000       0x3a E:\VSCode\ArduinoProjects\Datasheets\CH32\CH32V307\CH32V307_EVT\Examples\ETH\NetLib\libwchnet.a(dhcp.o)
 .text.dhcp_bind
                0x0000000000000000      0x1a0 E:\VSCode\ArduinoProjects\Datasheets\CH32\CH32V307\CH32V307_EVT\Examples\ETH\NetLib\libwchnet.a(dhcp.o)
 .text.dhcp_free_reply
                0x0000000000000000       0x36 E:\VSCode\ArduinoProjects\Datasheets\CH32\CH32V307\CH32V307_EVT\Examples\ETH\NetLib\libwchnet.a(dhcp.o)
 .text.dhcp_recv
                0x0000000000000000      0x38c E:\VSCode\ArduinoProjects\Datasheets\CH32\CH32V307\CH32V307_EVT\Examples\ETH\NetLib\libwchnet.a(dhcp.o)
 .text.dhcp_inform
                0x0000000000000000       0xfa E:\VSCode\ArduinoProjects\Datasheets\CH32\CH32V307\CH32V307_EVT\Examples\ETH\NetLib\libwchnet.a(dhcp.o)
 .text.dhcp_network_changed
                0x0000000000000000       0x5c E:\VSCode\ArduinoProjects\Datasheets\CH32\CH32V307\CH32V307_EVT\Examples\ETH\NetLib\libwchnet.a(dhcp.o)
 .text.dhcp_renew
                0x0000000000000000      0x112 E:\VSCode\ArduinoProjects\Datasheets\CH32\CH32V307\CH32V307_EVT\Examples\ETH\NetLib\libwchnet.a(dhcp.o)
 .text.dhcp_coarse_tmr
                0x0000000000000000       0x70 E:\VSCode\ArduinoProjects\Datasheets\CH32\CH32V307\CH32V307_EVT\Examples\ETH\NetLib\libwchnet.a(dhcp.o)
 .text.dhcp_release
                0x0000000000000000      0x118 E:\VSCode\ArduinoProjects\Datasheets\CH32\CH32V307\CH32V307_EVT\Examples\ETH\NetLib\libwchnet.a(dhcp.o)
 .text.dhcp_fine_tmr
                0x0000000000000000       0xea E:\VSCode\ArduinoProjects\Datasheets\CH32\CH32V307\CH32V307_EVT\Examples\ETH\NetLib\libwchnet.a(dhcp.o)
 .text.dhcp_stop
                0x0000000000000000       0x3e E:\VSCode\ArduinoProjects\Datasheets\CH32\CH32V307\CH32V307_EVT\Examples\ETH\NetLib\libwchnet.a(dhcp.o)
 .text.dhcp_start
                0x0000000000000000       0xde E:\VSCode\ArduinoProjects\Datasheets\CH32\CH32V307\CH32V307_EVT\Examples\ETH\NetLib\libwchnet.a(dhcp.o)
 .text          0x0000000000000000        0x0 E:\VSCode\ArduinoProjects\Datasheets\CH32\CH32V307\CH32V307_EVT\Examples\ETH\NetLib\libwchnet.a(dns.o)
 .data          0x0000000000000000        0x0 E:\VSCode\ArduinoProjects\Datasheets\CH32\CH32V307\CH32V307_EVT\Examples\ETH\NetLib\libwchnet.a(dns.o)
 .bss           0x0000000000000000        0x0 E:\VSCode\ArduinoProjects\Datasheets\CH32\CH32V307\CH32V307_EVT\Examples\ETH\NetLib\libwchnet.a(dns.o)
 .text.dns_parse_name
                0x0000000000000000       0x20 E:\VSCode\ArduinoProjects\Datasheets\CH32\CH32V307\CH32V307_EVT\Examples\ETH\NetLib\libwchnet.a(dns.o)
 .text.dns_recv
                0x0000000000000000      0x226 E:\VSCode\ArduinoProjects\Datasheets\CH32\CH32V307\CH32V307_EVT\Examples\ETH\NetLib\libwchnet.a(dns.o)
 .text.dns_send
                0x0000000000000000      0x12e E:\VSCode\ArduinoProjects\Datasheets\CH32\CH32V307\CH32V307_EVT\Examples\ETH\NetLib\libwchnet.a(dns.o)
 .text.dns_check_entry
                0x0000000000000000       0xd6 E:\VSCode\ArduinoProjects\Datasheets\CH32\CH32V307\CH32V307_EVT\Examples\ETH\NetLib\libwchnet.a(dns.o)
 .text.dns_setserver
                0x0000000000000000       0x50 E:\VSCode\ArduinoProjects\Datasheets\CH32\CH32V307\CH32V307_EVT\Examples\ETH\NetLib\libwchnet.a(dns.o)
 .text.dns_init
                0x0000000000000000       0x68 E:\VSCode\ArduinoProjects\Datasheets\CH32\CH32V307\CH32V307_EVT\Examples\ETH\NetLib\libwchnet.a(dns.o)
 .text.dns_getserver
                0x0000000000000000       0x56 E:\VSCode\ArduinoProjects\Datasheets\CH32\CH32V307\CH32V307_EVT\Examples\ETH\NetLib\libwchnet.a(dns.o)
 .text.dns_tmr  0x0000000000000000       0x44 E:\VSCode\ArduinoProjects\Datasheets\CH32\CH32V307\CH32V307_EVT\Examples\ETH\NetLib\libwchnet.a(dns.o)
 .text.dns_lookup
                0x0000000000000000       0x58 E:\VSCode\ArduinoProjects\Datasheets\CH32\CH32V307\CH32V307_EVT\Examples\ETH\NetLib\libwchnet.a(dns.o)
 .text.dns_gethostbyname
                0x0000000000000000       0xf0 E:\VSCode\ArduinoProjects\Datasheets\CH32\CH32V307\CH32V307_EVT\Examples\ETH\NetLib\libwchnet.a(dns.o)
 .text.dns_stop
                0x0000000000000000       0x32 E:\VSCode\ArduinoProjects\Datasheets\CH32\CH32V307\CH32V307_EVT\Examples\ETH\NetLib\libwchnet.a(dns.o)
 .bss.dns_table
                0x0000000000000000      0x260 E:\VSCode\ArduinoProjects\Datasheets\CH32\CH32V307\CH32V307_EVT\Examples\ETH\NetLib\libwchnet.a(dns.o)
 .sbss.dns_pcb  0x0000000000000000        0x4 E:\VSCode\ArduinoProjects\Datasheets\CH32\CH32V307\CH32V307_EVT\Examples\ETH\NetLib\libwchnet.a(dns.o)
 .sbss.dns_seqno
                0x0000000000000000        0x1 E:\VSCode\ArduinoProjects\Datasheets\CH32\CH32V307\CH32V307_EVT\Examples\ETH\NetLib\libwchnet.a(dns.o)
 .sbss.dns_servers
                0x0000000000000000        0x8 E:\VSCode\ArduinoProjects\Datasheets\CH32\CH32V307\CH32V307_EVT\Examples\ETH\NetLib\libwchnet.a(dns.o)
 .comment       0x0000000000000000       0x34 E:\VSCode\ArduinoProjects\Datasheets\CH32\CH32V307\CH32V307_EVT\Examples\ETH\NetLib\libwchnet.a(dns.o)
 .text          0x0000000000000000        0x0 E:\VSCode\ArduinoProjects\Datasheets\CH32\CH32V307\CH32V307_EVT\Examples\ETH\NetLib\libwchnet.a(init.o)
 .data          0x0000000000000000        0x0 E:\VSCode\ArduinoProjects\Datasheets\CH32\CH32V307\CH32V307_EVT\Examples\ETH\NetLib\libwchnet.a(init.o)
 .bss           0x0000000000000000        0x0 E:\VSCode\ArduinoProjects\Datasheets\CH32\CH32V307\CH32V307_EVT\Examples\ETH\NetLib\libwchnet.a(init.o)
 .text          0x0000000000000000        0x0 E:\VSCode\ArduinoProjects\Datasheets\CH32\CH32V307\CH32V307_EVT\Examples\ETH\NetLib\libwchnet.a(mem.o)
 .data          0x0000000000000000        0x0 E:\VSCode\ArduinoProjects\Datasheets\CH32\CH32V307\CH32V307_EVT\Examples\ETH\NetLib\libwchnet.a(mem.o)
 .bss           0x0000000000000000        0x0 E:\VSCode\ArduinoProjects\Datasheets\CH32\CH32V307\CH32V307_EVT\Examples\ETH\NetLib\libwchnet.a(mem.o)
 .text.mem2_init
                0x0000000000000000       0x52 E:\VSCode\ArduinoProjects\Datasheets\CH32\CH32V307\CH32V307_EVT\Examples\ETH\NetLib\libwchnet.a(mem.o)
 .text.mem_calloc
                0x0000000000000000       0x3a E:\VSCode\ArduinoProjects\Datasheets\CH32\CH32V307\CH32V307_EVT\Examples\ETH\NetLib\libwchnet.a(mem.o)
 .text          0x0000000000000000        0x0 E:\VSCode\ArduinoProjects\Datasheets\CH32\CH32V307\CH32V307_EVT\Examples\ETH\NetLib\libwchnet.a(memp.o)
 .data          0x0000000000000000        0x0 E:\VSCode\ArduinoProjects\Datasheets\CH32\CH32V307\CH32V307_EVT\Examples\ETH\NetLib\libwchnet.a(memp.o)
 .bss           0x0000000000000000        0x0 E:\VSCode\ArduinoProjects\Datasheets\CH32\CH32V307\CH32V307_EVT\Examples\ETH\NetLib\libwchnet.a(memp.o)
 .text          0x0000000000000000        0x0 E:\VSCode\ArduinoProjects\Datasheets\CH32\CH32V307\CH32V307_EVT\Examples\ETH\NetLib\libwchnet.a(netif.o)
 .data          0x0000000000000000        0x0 E:\VSCode\ArduinoProjects\Datasheets\CH32\CH32V307\CH32V307_EVT\Examples\ETH\NetLib\libwchnet.a(netif.o)
 .bss           0x0000000000000000        0x0 E:\VSCode\ArduinoProjects\Datasheets\CH32\CH32V307\CH32V307_EVT\Examples\ETH\NetLib\libwchnet.a(netif.o)
 .text.netif_remove
                0x0000000000000000       0x3a E:\VSCode\ArduinoProjects\Datasheets\CH32\CH32V307\CH32V307_EVT\Examples\ETH\NetLib\libwchnet.a(netif.o)
 .text.netif_find
                0x0000000000000000       0x40 E:\VSCode\ArduinoProjects\Datasheets\CH32\CH32V307\CH32V307_EVT\Examples\ETH\NetLib\libwchnet.a(netif.o)
 .text.netif_set_gw
                0x0000000000000000       0x1c E:\VSCode\ArduinoProjects\Datasheets\CH32\CH32V307\CH32V307_EVT\Examples\ETH\NetLib\libwchnet.a(netif.o)
 .text.netif_set_netmask
                0x0000000000000000       0x1c E:\VSCode\ArduinoProjects\Datasheets\CH32\CH32V307\CH32V307_EVT\Examples\ETH\NetLib\libwchnet.a(netif.o)
 .text.netif_set_up
                0x0000000000000000       0x36 E:\VSCode\ArduinoProjects\Datasheets\CH32\CH32V307\CH32V307_EVT\Examples\ETH\NetLib\libwchnet.a(netif.o)
 .text.netif_set_down
                0x0000000000000000       0x12 E:\VSCode\ArduinoProjects\Datasheets\CH32\CH32V307\CH32V307_EVT\Examples\ETH\NetLib\libwchnet.a(netif.o)
 .text          0x0000000000000000        0x0 E:\VSCode\ArduinoProjects\Datasheets\CH32\CH32V307\CH32V307_EVT\Examples\ETH\NetLib\libwchnet.a(pbuf.o)
 .data          0x0000000000000000        0x0 E:\VSCode\ArduinoProjects\Datasheets\CH32\CH32V307\CH32V307_EVT\Examples\ETH\NetLib\libwchnet.a(pbuf.o)
 .bss           0x0000000000000000        0x0 E:\VSCode\ArduinoProjects\Datasheets\CH32\CH32V307\CH32V307_EVT\Examples\ETH\NetLib\libwchnet.a(pbuf.o)
 .text.pbuf_dechain
                0x0000000000000000       0x32 E:\VSCode\ArduinoProjects\Datasheets\CH32\CH32V307\CH32V307_EVT\Examples\ETH\NetLib\libwchnet.a(pbuf.o)
 .text.pbuf_copy_partial
                0x0000000000000000       0x76 E:\VSCode\ArduinoProjects\Datasheets\CH32\CH32V307\CH32V307_EVT\Examples\ETH\NetLib\libwchnet.a(pbuf.o)
 .text.pbuf_take
                0x0000000000000000       0x60 E:\VSCode\ArduinoProjects\Datasheets\CH32\CH32V307\CH32V307_EVT\Examples\ETH\NetLib\libwchnet.a(pbuf.o)
 .text.pbuf_coalesce
                0x0000000000000000       0x42 E:\VSCode\ArduinoProjects\Datasheets\CH32\CH32V307\CH32V307_EVT\Examples\ETH\NetLib\libwchnet.a(pbuf.o)
 .text          0x0000000000000000        0x0 E:\VSCode\ArduinoProjects\Datasheets\CH32\CH32V307\CH32V307_EVT\Examples\ETH\NetLib\libwchnet.a(raw.o)
 .data          0x0000000000000000        0x0 E:\VSCode\ArduinoProjects\Datasheets\CH32\CH32V307\CH32V307_EVT\Examples\ETH\NetLib\libwchnet.a(raw.o)
 .bss           0x0000000000000000        0x0 E:\VSCode\ArduinoProjects\Datasheets\CH32\CH32V307\CH32V307_EVT\Examples\ETH\NetLib\libwchnet.a(raw.o)
 .text          0x0000000000000000        0x0 E:\VSCode\ArduinoProjects\Datasheets\CH32\CH32V307\CH32V307_EVT\Examples\ETH\NetLib\libwchnet.a(tcp.o)
 .data          0x0000000000000000        0x0 E:\VSCode\ArduinoProjects\Datasheets\CH32\CH32V307\CH32V307_EVT\Examples\ETH\NetLib\libwchnet.a(tcp.o)
 .bss           0x0000000000000000        0x0 E:\VSCode\ArduinoProjects\Datasheets\CH32\CH32V307\CH32V307_EVT\Examples\ETH\NetLib\libwchnet.a(tcp.o)
 .text.tcp_setprio
                0x0000000000000000        0x4 E:\VSCode\ArduinoProjects\Datasheets\CH32\CH32V307\CH32V307_EVT\Examples\ETH\NetLib\libwchnet.a(tcp.o)
 .text.tcp_debug_state_str
                0x0000000000000000       0x10 E:\VSCode\ArduinoProjects\Datasheets\CH32\CH32V307\CH32V307_EVT\Examples\ETH\NetLib\libwchnet.a(tcp.o)
 .data.tcp_state_str
                0x0000000000000000       0x2c E:\VSCode\ArduinoProjects\Datasheets\CH32\CH32V307\CH32V307_EVT\Examples\ETH\NetLib\libwchnet.a(tcp.o)
 .rodata.str1.4
                0x0000000000000000       0x76 E:\VSCode\ArduinoProjects\Datasheets\CH32\CH32V307\CH32V307_EVT\Examples\ETH\NetLib\libwchnet.a(tcp.o)
 .text          0x0000000000000000        0x0 E:\VSCode\ArduinoProjects\Datasheets\CH32\CH32V307\CH32V307_EVT\Examples\ETH\NetLib\libwchnet.a(tcp_in.o)
 .data          0x0000000000000000        0x0 E:\VSCode\ArduinoProjects\Datasheets\CH32\CH32V307\CH32V307_EVT\Examples\ETH\NetLib\libwchnet.a(tcp_in.o)
 .bss           0x0000000000000000        0x0 E:\VSCode\ArduinoProjects\Datasheets\CH32\CH32V307\CH32V307_EVT\Examples\ETH\NetLib\libwchnet.a(tcp_in.o)
 .text          0x0000000000000000        0x0 E:\VSCode\ArduinoProjects\Datasheets\CH32\CH32V307\CH32V307_EVT\Examples\ETH\NetLib\libwchnet.a(tcp_out.o)
 .data          0x0000000000000000        0x0 E:\VSCode\ArduinoProjects\Datasheets\CH32\CH32V307\CH32V307_EVT\Examples\ETH\NetLib\libwchnet.a(tcp_out.o)
 .bss           0x0000000000000000        0x0 E:\VSCode\ArduinoProjects\Datasheets\CH32\CH32V307\CH32V307_EVT\Examples\ETH\NetLib\libwchnet.a(tcp_out.o)
 .text          0x0000000000000000        0x0 E:\VSCode\ArduinoProjects\Datasheets\CH32\CH32V307\CH32V307_EVT\Examples\ETH\NetLib\libwchnet.a(udp.o)
 .data          0x0000000000000000        0x0 E:\VSCode\ArduinoProjects\Datasheets\CH32\CH32V307\CH32V307_EVT\Examples\ETH\NetLib\libwchnet.a(udp.o)
 .bss           0x0000000000000000        0x0 E:\VSCode\ArduinoProjects\Datasheets\CH32\CH32V307\CH32V307_EVT\Examples\ETH\NetLib\libwchnet.a(udp.o)
 .text.udp_disconnect
                0x0000000000000000       0x2e E:\VSCode\ArduinoProjects\Datasheets\CH32\CH32V307\CH32V307_EVT\Examples\ETH\NetLib\libwchnet.a(udp.o)
 .text          0x0000000000000000        0x0 E:\VSCode\ArduinoProjects\Datasheets\CH32\CH32V307\CH32V307_EVT\Examples\ETH\NetLib\libwchnet.a(icmp.o)
 .data          0x0000000000000000        0x0 E:\VSCode\ArduinoProjects\Datasheets\CH32\CH32V307\CH32V307_EVT\Examples\ETH\NetLib\libwchnet.a(icmp.o)
 .bss           0x0000000000000000        0x0 E:\VSCode\ArduinoProjects\Datasheets\CH32\CH32V307\CH32V307_EVT\Examples\ETH\NetLib\libwchnet.a(icmp.o)
 .text          0x0000000000000000        0x0 E:\VSCode\ArduinoProjects\Datasheets\CH32\CH32V307\CH32V307_EVT\Examples\ETH\NetLib\libwchnet.a(inet_chksum.o)
 .data          0x0000000000000000        0x0 E:\VSCode\ArduinoProjects\Datasheets\CH32\CH32V307\CH32V307_EVT\Examples\ETH\NetLib\libwchnet.a(inet_chksum.o)
 .bss           0x0000000000000000        0x0 E:\VSCode\ArduinoProjects\Datasheets\CH32\CH32V307\CH32V307_EVT\Examples\ETH\NetLib\libwchnet.a(inet_chksum.o)
 .text          0x0000000000000000        0x0 e:/program/mounriver/mounriver_studio/toolchain/risc-v embedded gcc/bin/../lib/gcc/riscv-none-embed/8.2.0/../../../../riscv-none-embed/lib/rv32imacxw/ilp32\libprintf.a(wchprintf.o)
 .data          0x0000000000000000        0x0 e:/program/mounriver/mounriver_studio/toolchain/risc-v embedded gcc/bin/../lib/gcc/riscv-none-embed/8.2.0/../../../../riscv-none-embed/lib/rv32imacxw/ilp32\libprintf.a(wchprintf.o)
 .bss           0x0000000000000000        0x0 e:/program/mounriver/mounriver_studio/toolchain/risc-v embedded gcc/bin/../lib/gcc/riscv-none-embed/8.2.0/../../../../riscv-none-embed/lib/rv32imacxw/ilp32\libprintf.a(wchprintf.o)
 .text.snprintf
                0x0000000000000000       0x2e e:/program/mounriver/mounriver_studio/toolchain/risc-v embedded gcc/bin/../lib/gcc/riscv-none-embed/8.2.0/../../../../riscv-none-embed/lib/rv32imacxw/ilp32\libprintf.a(wchprintf.o)
 .data          0x0000000000000000        0x0 e:/program/mounriver/mounriver_studio/toolchain/risc-v embedded gcc/bin/../lib/gcc/riscv-none-embed/8.2.0/rv32imacxw/ilp32\libgcc.a(save-restore.o)
 .bss           0x0000000000000000        0x0 e:/program/mounriver/mounriver_studio/toolchain/risc-v embedded gcc/bin/../lib/gcc/riscv-none-embed/8.2.0/rv32imacxw/ilp32\libgcc.a(save-restore.o)
 .eh_frame      0x0000000000000000       0xf8 e:/program/mounriver/mounriver_studio/toolchain/risc-v embedded gcc/bin/../lib/gcc/riscv-none-embed/8.2.0/rv32imacxw/ilp32\libgcc.a(save-restore.o)
 .text          0x0000000000000000        0x0 e:/program/mounriver/mounriver_studio/toolchain/risc-v embedded gcc/bin/../lib/gcc/riscv-none-embed/8.2.0/../../../../riscv-none-embed/lib/rv32imacxw/ilp32\libg_nano.a(lib_a-atoi.o)
 .data          0x0000000000000000        0x0 e:/program/mounriver/mounriver_studio/toolchain/risc-v embedded gcc/bin/../lib/gcc/riscv-none-embed/8.2.0/../../../../riscv-none-embed/lib/rv32imacxw/ilp32\libg_nano.a(lib_a-atoi.o)
 .bss           0x0000000000000000        0x0 e:/program/mounriver/mounriver_studio/toolchain/risc-v embedded gcc/bin/../lib/gcc/riscv-none-embed/8.2.0/../../../../riscv-none-embed/lib/rv32imacxw/ilp32\libg_nano.a(lib_a-atoi.o)
 .text._atoi_r  0x0000000000000000        0xc e:/program/mounriver/mounriver_studio/toolchain/risc-v embedded gcc/bin/../lib/gcc/riscv-none-embed/8.2.0/../../../../riscv-none-embed/lib/rv32imacxw/ilp32\libg_nano.a(lib_a-atoi.o)
 .text          0x0000000000000000        0x0 e:/program/mounriver/mounriver_studio/toolchain/risc-v embedded gcc/bin/../lib/gcc/riscv-none-embed/8.2.0/../../../../riscv-none-embed/lib/rv32imacxw/ilp32\libg_nano.a(lib_a-memcpy.o)
 .data          0x0000000000000000        0x0 e:/program/mounriver/mounriver_studio/toolchain/risc-v embedded gcc/bin/../lib/gcc/riscv-none-embed/8.2.0/../../../../riscv-none-embed/lib/rv32imacxw/ilp32\libg_nano.a(lib_a-memcpy.o)
 .bss           0x0000000000000000        0x0 e:/program/mounriver/mounriver_studio/toolchain/risc-v embedded gcc/bin/../lib/gcc/riscv-none-embed/8.2.0/../../../../riscv-none-embed/lib/rv32imacxw/ilp32\libg_nano.a(lib_a-memcpy.o)
 .data          0x0000000000000000        0x0 e:/program/mounriver/mounriver_studio/toolchain/risc-v embedded gcc/bin/../lib/gcc/riscv-none-embed/8.2.0/../../../../riscv-none-embed/lib/rv32imacxw/ilp32\libg_nano.a(lib_a-memset.o)
 .bss           0x0000000000000000        0x0 e:/program/mounriver/mounriver_studio/toolchain/risc-v embedded gcc/bin/../lib/gcc/riscv-none-embed/8.2.0/../../../../riscv-none-embed/lib/rv32imacxw/ilp32\libg_nano.a(lib_a-memset.o)
 .data          0x0000000000000000        0x0 e:/program/mounriver/mounriver_studio/toolchain/risc-v embedded gcc/bin/../lib/gcc/riscv-none-embed/8.2.0/../../../../riscv-none-embed/lib/rv32imacxw/ilp32\libg_nano.a(lib_a-strcmp.o)
 .bss           0x0000000000000000        0x0 e:/program/mounriver/mounriver_studio/toolchain/risc-v embedded gcc/bin/../lib/gcc/riscv-none-embed/8.2.0/../../../../riscv-none-embed/lib/rv32imacxw/ilp32\libg_nano.a(lib_a-strcmp.o)
 .text          0x0000000000000000        0x0 e:/program/mounriver/mounriver_studio/toolchain/risc-v embedded gcc/bin/../lib/gcc/riscv-none-embed/8.2.0/../../../../riscv-none-embed/lib/rv32imacxw/ilp32\libg_nano.a(lib_a-strcpy.o)
 .data          0x0000000000000000        0x0 e:/program/mounriver/mounriver_studio/toolchain/risc-v embedded gcc/bin/../lib/gcc/riscv-none-embed/8.2.0/../../../../riscv-none-embed/lib/rv32imacxw/ilp32\libg_nano.a(lib_a-strcpy.o)
 .bss           0x0000000000000000        0x0 e:/program/mounriver/mounriver_studio/toolchain/risc-v embedded gcc/bin/../lib/gcc/riscv-none-embed/8.2.0/../../../../riscv-none-embed/lib/rv32imacxw/ilp32\libg_nano.a(lib_a-strcpy.o)
 .text          0x0000000000000000        0x0 e:/program/mounriver/mounriver_studio/toolchain/risc-v embedded gcc/bin/../lib/gcc/riscv-none-embed/8.2.0/../../../../riscv-none-embed/lib/rv32imacxw/ilp32\libg_nano.a(lib_a-strlen.o)
 .data          0x0000000000000000        0x0 e:/program/mounriver/mounriver_studio/toolchain/risc-v embedded gcc/bin/../lib/gcc/riscv-none-embed/8.2.0/../../../../riscv-none-embed/lib/rv32imacxw/ilp32\libg_nano.a(lib_a-strlen.o)
 .bss           0x0000000000000000        0x0 e:/program/mounriver/mounriver_studio/toolchain/risc-v embedded gcc/bin/../lib/gcc/riscv-none-embed/8.2.0/../../../../riscv-none-embed/lib/rv32imacxw/ilp32\libg_nano.a(lib_a-strlen.o)
 .text          0x0000000000000000        0x0 e:/program/mounriver/mounriver_studio/toolchain/risc-v embedded gcc/bin/../lib/gcc/riscv-none-embed/8.2.0/../../../../riscv-none-embed/lib/rv32imacxw/ilp32\libg_nano.a(lib_a-strstr.o)
 .data          0x0000000000000000        0x0 e:/program/mounriver/mounriver_studio/toolchain/risc-v embedded gcc/bin/../lib/gcc/riscv-none-embed/8.2.0/../../../../riscv-none-embed/lib/rv32imacxw/ilp32\libg_nano.a(lib_a-strstr.o)
 .bss           0x0000000000000000        0x0 e:/program/mounriver/mounriver_studio/toolchain/risc-v embedded gcc/bin/../lib/gcc/riscv-none-embed/8.2.0/../../../../riscv-none-embed/lib/rv32imacxw/ilp32\libg_nano.a(lib_a-strstr.o)
 .text          0x0000000000000000        0x0 e:/program/mounriver/mounriver_studio/toolchain/risc-v embedded gcc/bin/../lib/gcc/riscv-none-embed/8.2.0/../../../../riscv-none-embed/lib/rv32imacxw/ilp32\libg_nano.a(lib_a-strtok.o)
 .data          0x0000000000000000        0x0 e:/program/mounriver/mounriver_studio/toolchain/risc-v embedded gcc/bin/../lib/gcc/riscv-none-embed/8.2.0/../../../../riscv-none-embed/lib/rv32imacxw/ilp32\libg_nano.a(lib_a-strtok.o)
 .bss           0x0000000000000000        0x0 e:/program/mounriver/mounriver_studio/toolchain/risc-v embedded gcc/bin/../lib/gcc/riscv-none-embed/8.2.0/../../../../riscv-none-embed/lib/rv32imacxw/ilp32\libg_nano.a(lib_a-strtok.o)
 .text          0x0000000000000000        0x0 e:/program/mounriver/mounriver_studio/toolchain/risc-v embedded gcc/bin/../lib/gcc/riscv-none-embed/8.2.0/../../../../riscv-none-embed/lib/rv32imacxw/ilp32\libg_nano.a(lib_a-strtok_r.o)
 .data          0x0000000000000000        0x0 e:/program/mounriver/mounriver_studio/toolchain/risc-v embedded gcc/bin/../lib/gcc/riscv-none-embed/8.2.0/../../../../riscv-none-embed/lib/rv32imacxw/ilp32\libg_nano.a(lib_a-strtok_r.o)
 .bss           0x0000000000000000        0x0 e:/program/mounriver/mounriver_studio/toolchain/risc-v embedded gcc/bin/../lib/gcc/riscv-none-embed/8.2.0/../../../../riscv-none-embed/lib/rv32imacxw/ilp32\libg_nano.a(lib_a-strtok_r.o)
 .text.strtok_r
                0x0000000000000000        0xa e:/program/mounriver/mounriver_studio/toolchain/risc-v embedded gcc/bin/../lib/gcc/riscv-none-embed/8.2.0/../../../../riscv-none-embed/lib/rv32imacxw/ilp32\libg_nano.a(lib_a-strtok_r.o)
 .text          0x0000000000000000        0x0 e:/program/mounriver/mounriver_studio/toolchain/risc-v embedded gcc/bin/../lib/gcc/riscv-none-embed/8.2.0/../../../../riscv-none-embed/lib/rv32imacxw/ilp32\libg_nano.a(lib_a-strtol.o)
 .data          0x0000000000000000        0x0 e:/program/mounriver/mounriver_studio/toolchain/risc-v embedded gcc/bin/../lib/gcc/riscv-none-embed/8.2.0/../../../../riscv-none-embed/lib/rv32imacxw/ilp32\libg_nano.a(lib_a-strtol.o)
 .bss           0x0000000000000000        0x0 e:/program/mounriver/mounriver_studio/toolchain/risc-v embedded gcc/bin/../lib/gcc/riscv-none-embed/8.2.0/../../../../riscv-none-embed/lib/rv32imacxw/ilp32\libg_nano.a(lib_a-strtol.o)
 .text._strtol_r
                0x0000000000000000       0x1e e:/program/mounriver/mounriver_studio/toolchain/risc-v embedded gcc/bin/../lib/gcc/riscv-none-embed/8.2.0/../../../../riscv-none-embed/lib/rv32imacxw/ilp32\libg_nano.a(lib_a-strtol.o)
 .text.strtol_l
                0x0000000000000000       0x1a e:/program/mounriver/mounriver_studio/toolchain/risc-v embedded gcc/bin/../lib/gcc/riscv-none-embed/8.2.0/../../../../riscv-none-embed/lib/rv32imacxw/ilp32\libg_nano.a(lib_a-strtol.o)
 .text          0x0000000000000000        0x0 e:/program/mounriver/mounriver_studio/toolchain/risc-v embedded gcc/bin/../lib/gcc/riscv-none-embed/8.2.0/../../../../riscv-none-embed/lib/rv32imacxw/ilp32\libg_nano.a(lib_a-impure.o)
 .data          0x0000000000000000        0x0 e:/program/mounriver/mounriver_studio/toolchain/risc-v embedded gcc/bin/../lib/gcc/riscv-none-embed/8.2.0/../../../../riscv-none-embed/lib/rv32imacxw/ilp32\libg_nano.a(lib_a-impure.o)
 .bss           0x0000000000000000        0x0 e:/program/mounriver/mounriver_studio/toolchain/risc-v embedded gcc/bin/../lib/gcc/riscv-none-embed/8.2.0/../../../../riscv-none-embed/lib/rv32imacxw/ilp32\libg_nano.a(lib_a-impure.o)
 .sdata2._global_impure_ptr
                0x0000000000000000        0x4 e:/program/mounriver/mounriver_studio/toolchain/risc-v embedded gcc/bin/../lib/gcc/riscv-none-embed/8.2.0/../../../../riscv-none-embed/lib/rv32imacxw/ilp32\libg_nano.a(lib_a-impure.o)
 .text          0x0000000000000000        0x0 e:/program/mounriver/mounriver_studio/toolchain/risc-v embedded gcc/bin/../lib/gcc/riscv-none-embed/8.2.0/../../../../riscv-none-embed/lib/rv32imacxw/ilp32\libg_nano.a(lib_a-locale.o)
 .data          0x0000000000000000        0x0 e:/program/mounriver/mounriver_studio/toolchain/risc-v embedded gcc/bin/../lib/gcc/riscv-none-embed/8.2.0/../../../../riscv-none-embed/lib/rv32imacxw/ilp32\libg_nano.a(lib_a-locale.o)
 .bss           0x0000000000000000        0x0 e:/program/mounriver/mounriver_studio/toolchain/risc-v embedded gcc/bin/../lib/gcc/riscv-none-embed/8.2.0/../../../../riscv-none-embed/lib/rv32imacxw/ilp32\libg_nano.a(lib_a-locale.o)
 .text._setlocale_r
                0x0000000000000000       0x64 e:/program/mounriver/mounriver_studio/toolchain/risc-v embedded gcc/bin/../lib/gcc/riscv-none-embed/8.2.0/../../../../riscv-none-embed/lib/rv32imacxw/ilp32\libg_nano.a(lib_a-locale.o)
 .text.__locale_mb_cur_max
                0x0000000000000000       0x1c e:/program/mounriver/mounriver_studio/toolchain/risc-v embedded gcc/bin/../lib/gcc/riscv-none-embed/8.2.0/../../../../riscv-none-embed/lib/rv32imacxw/ilp32\libg_nano.a(lib_a-locale.o)
 .text.__locale_ctype_ptr
                0x0000000000000000       0x1c e:/program/mounriver/mounriver_studio/toolchain/risc-v embedded gcc/bin/../lib/gcc/riscv-none-embed/8.2.0/../../../../riscv-none-embed/lib/rv32imacxw/ilp32\libg_nano.a(lib_a-locale.o)
 .text.setlocale
                0x0000000000000000       0x16 e:/program/mounriver/mounriver_studio/toolchain/risc-v embedded gcc/bin/../lib/gcc/riscv-none-embed/8.2.0/../../../../riscv-none-embed/lib/rv32imacxw/ilp32\libg_nano.a(lib_a-locale.o)
 .sbss._PathLocale
                0x0000000000000000        0x4 e:/program/mounriver/mounriver_studio/toolchain/risc-v embedded gcc/bin/../lib/gcc/riscv-none-embed/8.2.0/../../../../riscv-none-embed/lib/rv32imacxw/ilp32\libg_nano.a(lib_a-locale.o)
 .text          0x0000000000000000        0x0 e:/program/mounriver/mounriver_studio/toolchain/risc-v embedded gcc/bin/../lib/gcc/riscv-none-embed/8.2.0/../../../../riscv-none-embed/lib/rv32imacxw/ilp32\libg_nano.a(lib_a-malloc.o)
 .data          0x0000000000000000        0x0 e:/program/mounriver/mounriver_studio/toolchain/risc-v embedded gcc/bin/../lib/gcc/riscv-none-embed/8.2.0/../../../../riscv-none-embed/lib/rv32imacxw/ilp32\libg_nano.a(lib_a-malloc.o)
 .bss           0x0000000000000000        0x0 e:/program/mounriver/mounriver_studio/toolchain/risc-v embedded gcc/bin/../lib/gcc/riscv-none-embed/8.2.0/../../../../riscv-none-embed/lib/rv32imacxw/ilp32\libg_nano.a(lib_a-malloc.o)
 .text.free     0x0000000000000000       0x14 e:/program/mounriver/mounriver_studio/toolchain/risc-v embedded gcc/bin/../lib/gcc/riscv-none-embed/8.2.0/../../../../riscv-none-embed/lib/rv32imacxw/ilp32\libg_nano.a(lib_a-malloc.o)
 .text          0x0000000000000000        0x0 e:/program/mounriver/mounriver_studio/toolchain/risc-v embedded gcc/bin/../lib/gcc/riscv-none-embed/8.2.0/../../../../riscv-none-embed/lib/rv32imacxw/ilp32\libg_nano.a(lib_a-mbtowc_r.o)
 .data          0x0000000000000000        0x0 e:/program/mounriver/mounriver_studio/toolchain/risc-v embedded gcc/bin/../lib/gcc/riscv-none-embed/8.2.0/../../../../riscv-none-embed/lib/rv32imacxw/ilp32\libg_nano.a(lib_a-mbtowc_r.o)
 .bss           0x0000000000000000        0x0 e:/program/mounriver/mounriver_studio/toolchain/risc-v embedded gcc/bin/../lib/gcc/riscv-none-embed/8.2.0/../../../../riscv-none-embed/lib/rv32imacxw/ilp32\libg_nano.a(lib_a-mbtowc_r.o)
 .text._mbtowc_r
                0x0000000000000000       0x1c e:/program/mounriver/mounriver_studio/toolchain/risc-v embedded gcc/bin/../lib/gcc/riscv-none-embed/8.2.0/../../../../riscv-none-embed/lib/rv32imacxw/ilp32\libg_nano.a(lib_a-mbtowc_r.o)
 .text          0x0000000000000000        0x0 e:/program/mounriver/mounriver_studio/toolchain/risc-v embedded gcc/bin/../lib/gcc/riscv-none-embed/8.2.0/../../../../riscv-none-embed/lib/rv32imacxw/ilp32\libg_nano.a(lib_a-nano-freer.o)
 .data          0x0000000000000000        0x0 e:/program/mounriver/mounriver_studio/toolchain/risc-v embedded gcc/bin/../lib/gcc/riscv-none-embed/8.2.0/../../../../riscv-none-embed/lib/rv32imacxw/ilp32\libg_nano.a(lib_a-nano-freer.o)
 .bss           0x0000000000000000        0x0 e:/program/mounriver/mounriver_studio/toolchain/risc-v embedded gcc/bin/../lib/gcc/riscv-none-embed/8.2.0/../../../../riscv-none-embed/lib/rv32imacxw/ilp32\libg_nano.a(lib_a-nano-freer.o)
 .text._free_r  0x0000000000000000       0xb8 e:/program/mounriver/mounriver_studio/toolchain/risc-v embedded gcc/bin/../lib/gcc/riscv-none-embed/8.2.0/../../../../riscv-none-embed/lib/rv32imacxw/ilp32\libg_nano.a(lib_a-nano-freer.o)
 .debug_frame   0x0000000000000000       0x40 e:/program/mounriver/mounriver_studio/toolchain/risc-v embedded gcc/bin/../lib/gcc/riscv-none-embed/8.2.0/../../../../riscv-none-embed/lib/rv32imacxw/ilp32\libg_nano.a(lib_a-nano-freer.o)
 .text          0x0000000000000000        0x0 e:/program/mounriver/mounriver_studio/toolchain/risc-v embedded gcc/bin/../lib/gcc/riscv-none-embed/8.2.0/../../../../riscv-none-embed/lib/rv32imacxw/ilp32\libg_nano.a(lib_a-nano-mallocr.o)
 .data          0x0000000000000000        0x0 e:/program/mounriver/mounriver_studio/toolchain/risc-v embedded gcc/bin/../lib/gcc/riscv-none-embed/8.2.0/../../../../riscv-none-embed/lib/rv32imacxw/ilp32\libg_nano.a(lib_a-nano-mallocr.o)
 .bss           0x0000000000000000        0x0 e:/program/mounriver/mounriver_studio/toolchain/risc-v embedded gcc/bin/../lib/gcc/riscv-none-embed/8.2.0/../../../../riscv-none-embed/lib/rv32imacxw/ilp32\libg_nano.a(lib_a-nano-mallocr.o)
 .text          0x0000000000000000        0x0 e:/program/mounriver/mounriver_studio/toolchain/risc-v embedded gcc/bin/../lib/gcc/riscv-none-embed/8.2.0/../../../../riscv-none-embed/lib/rv32imacxw/ilp32\libg_nano.a(lib_a-sbrkr.o)
 .data          0x0000000000000000        0x0 e:/program/mounriver/mounriver_studio/toolchain/risc-v embedded gcc/bin/../lib/gcc/riscv-none-embed/8.2.0/../../../../riscv-none-embed/lib/rv32imacxw/ilp32\libg_nano.a(lib_a-sbrkr.o)
 .bss           0x0000000000000000        0x0 e:/program/mounriver/mounriver_studio/toolchain/risc-v embedded gcc/bin/../lib/gcc/riscv-none-embed/8.2.0/../../../../riscv-none-embed/lib/rv32imacxw/ilp32\libg_nano.a(lib_a-sbrkr.o)
 .text          0x0000000000000000        0x0 e:/program/mounriver/mounriver_studio/toolchain/risc-v embedded gcc/bin/../lib/gcc/riscv-none-embed/8.2.0/../../../../riscv-none-embed/lib/rv32imacxw/ilp32\libg_nano.a(lib_a-wctomb_r.o)
 .data          0x0000000000000000        0x0 e:/program/mounriver/mounriver_studio/toolchain/risc-v embedded gcc/bin/../lib/gcc/riscv-none-embed/8.2.0/../../../../riscv-none-embed/lib/rv32imacxw/ilp32\libg_nano.a(lib_a-wctomb_r.o)
 .bss           0x0000000000000000        0x0 e:/program/mounriver/mounriver_studio/toolchain/risc-v embedded gcc/bin/../lib/gcc/riscv-none-embed/8.2.0/../../../../riscv-none-embed/lib/rv32imacxw/ilp32\libg_nano.a(lib_a-wctomb_r.o)
 .text._wctomb_r
                0x0000000000000000       0x1c e:/program/mounriver/mounriver_studio/toolchain/risc-v embedded gcc/bin/../lib/gcc/riscv-none-embed/8.2.0/../../../../riscv-none-embed/lib/rv32imacxw/ilp32\libg_nano.a(lib_a-wctomb_r.o)
 .text          0x0000000000000000        0x0 e:/program/mounriver/mounriver_studio/toolchain/risc-v embedded gcc/bin/../lib/gcc/riscv-none-embed/8.2.0/../../../../riscv-none-embed/lib/rv32imacxw/ilp32\libg_nano.a(lib_a-ctype_.o)
 .data          0x0000000000000000        0x0 e:/program/mounriver/mounriver_studio/toolchain/risc-v embedded gcc/bin/../lib/gcc/riscv-none-embed/8.2.0/../../../../riscv-none-embed/lib/rv32imacxw/ilp32\libg_nano.a(lib_a-ctype_.o)
 .bss           0x0000000000000000        0x0 e:/program/mounriver/mounriver_studio/toolchain/risc-v embedded gcc/bin/../lib/gcc/riscv-none-embed/8.2.0/../../../../riscv-none-embed/lib/rv32imacxw/ilp32\libg_nano.a(lib_a-ctype_.o)
 .text          0x0000000000000000        0x0 e:/program/mounriver/mounriver_studio/toolchain/risc-v embedded gcc/bin/../lib/gcc/riscv-none-embed/8.2.0/../../../../riscv-none-embed/lib/rv32imacxw/ilp32\libg_nano.a(lib_a-mlock.o)
 .data          0x0000000000000000        0x0 e:/program/mounriver/mounriver_studio/toolchain/risc-v embedded gcc/bin/../lib/gcc/riscv-none-embed/8.2.0/../../../../riscv-none-embed/lib/rv32imacxw/ilp32\libg_nano.a(lib_a-mlock.o)
 .bss           0x0000000000000000        0x0 e:/program/mounriver/mounriver_studio/toolchain/risc-v embedded gcc/bin/../lib/gcc/riscv-none-embed/8.2.0/../../../../riscv-none-embed/lib/rv32imacxw/ilp32\libg_nano.a(lib_a-mlock.o)
 .text          0x0000000000000000        0x0 e:/program/mounriver/mounriver_studio/toolchain/risc-v embedded gcc/bin/../lib/gcc/riscv-none-embed/8.2.0/../../../../riscv-none-embed/lib/rv32imacxw/ilp32\libg_nano.a(lib_a-reent.o)
 .data          0x0000000000000000        0x0 e:/program/mounriver/mounriver_studio/toolchain/risc-v embedded gcc/bin/../lib/gcc/riscv-none-embed/8.2.0/../../../../riscv-none-embed/lib/rv32imacxw/ilp32\libg_nano.a(lib_a-reent.o)
 .bss           0x0000000000000000        0x0 e:/program/mounriver/mounriver_studio/toolchain/risc-v embedded gcc/bin/../lib/gcc/riscv-none-embed/8.2.0/../../../../riscv-none-embed/lib/rv32imacxw/ilp32\libg_nano.a(lib_a-reent.o)
 .text.cleanup_glue
                0x0000000000000000       0x2c e:/program/mounriver/mounriver_studio/toolchain/risc-v embedded gcc/bin/../lib/gcc/riscv-none-embed/8.2.0/../../../../riscv-none-embed/lib/rv32imacxw/ilp32\libg_nano.a(lib_a-reent.o)
 .text._reclaim_reent
                0x0000000000000000      0x10c e:/program/mounriver/mounriver_studio/toolchain/risc-v embedded gcc/bin/../lib/gcc/riscv-none-embed/8.2.0/../../../../riscv-none-embed/lib/rv32imacxw/ilp32\libg_nano.a(lib_a-reent.o)

Memory Configuration

Name             Origin             Length             Attributes
FLASH            0x0000000000000000 0x0000000000040000 xr
RAM              0x0000000020000000 0x0000000000010000 xrw
*default*        0x0000000000000000 0xffffffffffffffff

Linker script and memory map

LOAD ./User/ch32v30x_it.o
LOAD ./User/main.o
LOAD ./User/system_ch32v30x.o
LOAD ./Startup/startup_ch32v30x_D8C.o
LOAD ./Peripheral/src/ch32v30x_adc.o
LOAD ./Peripheral/src/ch32v30x_bkp.o
LOAD ./Peripheral/src/ch32v30x_can.o
LOAD ./Peripheral/src/ch32v30x_crc.o
LOAD ./Peripheral/src/ch32v30x_dac.o
LOAD ./Peripheral/src/ch32v30x_dbgmcu.o
LOAD ./Peripheral/src/ch32v30x_dma.o
LOAD ./Peripheral/src/ch32v30x_dvp.o
LOAD ./Peripheral/src/ch32v30x_eth.o
LOAD ./Peripheral/src/ch32v30x_exti.o
LOAD ./Peripheral/src/ch32v30x_flash.o
LOAD ./Peripheral/src/ch32v30x_fsmc.o
LOAD ./Peripheral/src/ch32v30x_gpio.o
LOAD ./Peripheral/src/ch32v30x_i2c.o
LOAD ./Peripheral/src/ch32v30x_iwdg.o
LOAD ./Peripheral/src/ch32v30x_misc.o
LOAD ./Peripheral/src/ch32v30x_opa.o
LOAD ./Peripheral/src/ch32v30x_pwr.o
LOAD ./Peripheral/src/ch32v30x_rcc.o
LOAD ./Peripheral/src/ch32v30x_rng.o
LOAD ./Peripheral/src/ch32v30x_rtc.o
LOAD ./Peripheral/src/ch32v30x_sdio.o
LOAD ./Peripheral/src/ch32v30x_spi.o
LOAD ./Peripheral/src/ch32v30x_tim.o
LOAD ./Peripheral/src/ch32v30x_usart.o
LOAD ./Peripheral/src/ch32v30x_wwdg.o
LOAD ./NetLib/eth_driver.o
LOAD ./HTTP/HTTPS.o
LOAD ./Debug/debug.o
LOAD ./Core/core_riscv.o
LOAD e:/program/mounriver/mounriver_studio/toolchain/risc-v embedded gcc/bin/../lib/gcc/riscv-none-embed/8.2.0/../../../../riscv-none-embed/lib/rv32imacxw/ilp32\libm.a
LOAD E:\VSCode\ArduinoProjects\Datasheets\CH32\CH32V307\CH32V307_EVT\Examples\ETH\NetLib\libwchnet.a
LOAD e:/program/mounriver/mounriver_studio/toolchain/risc-v embedded gcc/bin/../lib/gcc/riscv-none-embed/8.2.0/../../../../riscv-none-embed/lib/rv32imacxw/ilp32\libprintf.a
LOAD e:/program/mounriver/mounriver_studio/toolchain/risc-v embedded gcc/bin/../lib/gcc/riscv-none-embed/8.2.0/rv32imacxw/ilp32\libgcc.a
LOAD e:/program/mounriver/mounriver_studio/toolchain/risc-v embedded gcc/bin/../lib/gcc/riscv-none-embed/8.2.0/../../../../riscv-none-embed/lib/rv32imacxw/ilp32\libg_nano.a
LOAD e:/program/mounriver/mounriver_studio/toolchain/risc-v embedded gcc/bin/../lib/gcc/riscv-none-embed/8.2.0/../../../../riscv-none-embed/lib/rv32imacxw/ilp32\libc_nano.a
LOAD e:/program/mounriver/mounriver_studio/toolchain/risc-v embedded gcc/bin/../lib/gcc/riscv-none-embed/8.2.0/rv32imacxw/ilp32\libgcc.a
START GROUP
LOAD e:/program/mounriver/mounriver_studio/toolchain/risc-v embedded gcc/bin/../lib/gcc/riscv-none-embed/8.2.0/rv32imacxw/ilp32\libgcc.a
LOAD e:/program/mounriver/mounriver_studio/toolchain/risc-v embedded gcc/bin/../lib/gcc/riscv-none-embed/8.2.0/../../../../riscv-none-embed/lib/rv32imacxw/ilp32\libc_nano.a
LOAD e:/program/mounriver/mounriver_studio/toolchain/risc-v embedded gcc/bin/../lib/gcc/riscv-none-embed/8.2.0/../../../../riscv-none-embed/lib/rv32imacxw/ilp32\libnosys.a
END GROUP
START GROUP
LOAD e:/program/mounriver/mounriver_studio/toolchain/risc-v embedded gcc/bin/../lib/gcc/riscv-none-embed/8.2.0/rv32imacxw/ilp32\libgcc.a
LOAD e:/program/mounriver/mounriver_studio/toolchain/risc-v embedded gcc/bin/../lib/gcc/riscv-none-embed/8.2.0/../../../../riscv-none-embed/lib/rv32imacxw/ilp32\libc_nano.a
LOAD e:/program/mounriver/mounriver_studio/toolchain/risc-v embedded gcc/bin/../lib/gcc/riscv-none-embed/8.2.0/../../../../riscv-none-embed/lib/rv32imacxw/ilp32\libnosys.a
END GROUP
                0x0000000000000800                __stack_size = 0x800
                [!provide]                        PROVIDE (_stack_size = __stack_size)

.init           0x0000000000000000       0x38
                0x0000000000000000                _sinit = .
                0x0000000000000000                . = ALIGN (0x4)
 *(SORT_NONE(.init))
 .init          0x0000000000000000       0x38 ./Startup/startup_ch32v30x_D8C.o
                0x0000000000000000                _start
                0x0000000000000038                . = ALIGN (0x4)
                0x0000000000000038                _einit = .

.vector         0x0000000000000038      0x1c8
 *(.vector)
 .vector        0x0000000000000038      0x1a0 ./Startup/startup_ch32v30x_D8C.o
                0x0000000000000200                . = ALIGN (0x40)
 *fill*         0x00000000000001d8       0x28 

.text           0x0000000000000200    0x11fd8
                0x0000000000000200                . = ALIGN (0x4)
 *(.text)
 .text          0x0000000000000200       0x60 e:/program/mounriver/mounriver_studio/toolchain/risc-v embedded gcc/bin/../lib/gcc/riscv-none-embed/8.2.0/rv32imacxw/ilp32\libgcc.a(save-restore.o)
                0x0000000000000200                __riscv_save_12
                0x0000000000000208                __riscv_save_9
                0x0000000000000208                __riscv_save_11
                0x0000000000000208                __riscv_save_10
                0x0000000000000208                __riscv_save_8
                0x0000000000000216                __riscv_save_4
                0x0000000000000216                __riscv_save_6
                0x0000000000000216                __riscv_save_5
                0x0000000000000216                __riscv_save_7
                0x0000000000000230                __riscv_save_3
                0x0000000000000230                __riscv_save_2
                0x0000000000000230                __riscv_save_1
                0x0000000000000230                __riscv_save_0
                0x000000000000023c                __riscv_restore_12
                0x0000000000000240                __riscv_restore_11
                0x0000000000000240                __riscv_restore_9
                0x0000000000000240                __riscv_restore_10
                0x0000000000000240                __riscv_restore_8
                0x000000000000024a                __riscv_restore_5
                0x000000000000024a                __riscv_restore_7
                0x000000000000024a                __riscv_restore_6
                0x000000000000024a                __riscv_restore_4
                0x0000000000000254                __riscv_restore_3
                0x0000000000000254                __riscv_restore_0
                0x0000000000000254                __riscv_restore_2
                0x0000000000000254                __riscv_restore_1
 .text          0x0000000000000260       0xa8 e:/program/mounriver/mounriver_studio/toolchain/risc-v embedded gcc/bin/../lib/gcc/riscv-none-embed/8.2.0/../../../../riscv-none-embed/lib/rv32imacxw/ilp32\libg_nano.a(lib_a-memset.o)
                0x0000000000000260                memset
 .text          0x0000000000000308      0x11a e:/program/mounriver/mounriver_studio/toolchain/risc-v embedded gcc/bin/../lib/gcc/riscv-none-embed/8.2.0/../../../../riscv-none-embed/lib/rv32imacxw/ilp32\libg_nano.a(lib_a-strcmp.o)
                0x0000000000000308                strcmp
 *(.text.*)
 .text.NMI_Handler
                0x0000000000000422        0x4 ./User/ch32v30x_it.o
                0x0000000000000422                NMI_Handler
 .text.HardFault_Handler
                0x0000000000000426       0x44 ./User/ch32v30x_it.o
                0x0000000000000426                HardFault_Handler
 .text.EXTI9_5_IRQHandler
                0x000000000000046a       0x50 ./User/ch32v30x_it.o
                0x000000000000046a                EXTI9_5_IRQHandler
 .text.ETH_IRQHandler
                0x00000000000004ba        0x8 ./User/ch32v30x_it.o
                0x00000000000004ba                ETH_IRQHandler
 .text.TIM2_IRQHandler
                0x00000000000004c2       0x14 ./User/ch32v30x_it.o
                0x00000000000004c2                TIM2_IRQHandler
 .text.mStopIfError
                0x00000000000004d6       0x18 ./User/main.o
                0x00000000000004d6                mStopIfError
 .text.TIM2_Init
                0x00000000000004ee       0x72 ./User/main.o
                0x00000000000004ee                TIM2_Init
 .text.WCHNET_CreateTcpSocketListen
                0x0000000000000560       0x48 ./User/main.o
                0x0000000000000560                WCHNET_CreateTcpSocketListen
 .text.WCHNET_CreateCfgSocket
                0x00000000000005a8       0xa8 ./User/main.o
                0x00000000000005a8                WCHNET_CreateCfgSocket
 .text.WCHNET_RestoreDefaults
                0x0000000000000650       0x60 ./User/main.o
                0x0000000000000650                WCHNET_RestoreDefaults
 .text.WCHNET_HandleSockInt
                0x00000000000006b0       0xac ./User/main.o
                0x00000000000006b0                WCHNET_HandleSockInt
 .text.WCHNET_HandleGlobalInt
                0x000000000000075c       0x6e ./User/main.o
                0x000000000000075c                WCHNET_HandleGlobalInt
 .text.GPIOInit
                0x00000000000007ca       0x32 ./User/main.o
                0x00000000000007ca                GPIOInit
 .text.startup.main
                0x00000000000007fc      0x234 ./User/main.o
                0x00000000000007fc                main
 .text.SystemInit
                0x0000000000000a30       0xfa ./User/system_ch32v30x.o
                0x0000000000000a30                SystemInit
 .text.SystemCoreClockUpdate
                0x0000000000000b2a       0xbe ./User/system_ch32v30x.o
                0x0000000000000b2a                SystemCoreClockUpdate
 .text.vector_handler
                0x0000000000000be8       0xbe ./Startup/startup_ch32v30x_D8C.o
                0x0000000000000bec                Ecall_M_Mode_Handler
                0x0000000000000bee                Ecall_U_Mode_Handler
                0x0000000000000bf0                Break_Point_Handler
                0x0000000000000bf2                SysTick_Handler
                0x0000000000000bf4                SW_Handler
                0x0000000000000bf6                WWDG_IRQHandler
                0x0000000000000bf8                PVD_IRQHandler
                0x0000000000000bfa                TAMPER_IRQHandler
                0x0000000000000bfc                RTC_IRQHandler
                0x0000000000000bfe                FLASH_IRQHandler
                0x0000000000000c00                RCC_IRQHandler
                0x0000000000000c02                EXTI0_IRQHandler
                0x0000000000000c04                EXTI1_IRQHandler
                0x0000000000000c06                EXTI2_IRQHandler
                0x0000000000000c08                EXTI3_IRQHandler
                0x0000000000000c0a                EXTI4_IRQHandler
                0x0000000000000c0c                DMA1_Channel1_IRQHandler
                0x0000000000000c0e                DMA1_Channel2_IRQHandler
                0x0000000000000c10                DMA1_Channel3_IRQHandler
                0x0000000000000c12                DMA1_Channel4_IRQHandler
                0x0000000000000c14                DMA1_Channel5_IRQHandler
                0x0000000000000c16                DMA1_Channel6_IRQHandler
                0x0000000000000c18                DMA1_Channel7_IRQHandler
                0x0000000000000c1a                ADC1_2_IRQHandler
                0x0000000000000c1c                USB_HP_CAN1_TX_IRQHandler
                0x0000000000000c1e                USB_LP_CAN1_RX0_IRQHandler
                0x0000000000000c20                CAN1_RX1_IRQHandler
                0x0000000000000c22                CAN1_SCE_IRQHandler
                0x0000000000000c26                TIM1_BRK_IRQHandler
                0x0000000000000c28                TIM1_UP_IRQHandler
                0x0000000000000c2a                TIM1_TRG_COM_IRQHandler
                0x0000000000000c2c                TIM1_CC_IRQHandler
                0x0000000000000c30                TIM3_IRQHandler
                0x0000000000000c32                TIM4_IRQHandler
                0x0000000000000c34                I2C1_EV_IRQHandler
                0x0000000000000c36                I2C1_ER_IRQHandler
                0x0000000000000c38                I2C2_EV_IRQHandler
                0x0000000000000c3a                I2C2_ER_IRQHandler
                0x0000000000000c3c                SPI1_IRQHandler
                0x0000000000000c3e                SPI2_IRQHandler
                0x0000000000000c40                USART1_IRQHandler
                0x0000000000000c42                USART2_IRQHandler
                0x0000000000000c44                USART3_IRQHandler
                0x0000000000000c46                EXTI15_10_IRQHandler
                0x0000000000000c48                RTCAlarm_IRQHandler
                0x0000000000000c4a                USBWakeUp_IRQHandler
                0x0000000000000c4c                TIM8_BRK_IRQHandler
                0x0000000000000c4e                TIM8_UP_IRQHandler
                0x0000000000000c50                TIM8_TRG_COM_IRQHandler
                0x0000000000000c52                TIM8_CC_IRQHandler
                0x0000000000000c54                RNG_IRQHandler
                0x0000000000000c56                FSMC_IRQHandler
                0x0000000000000c58                SDIO_IRQHandler
                0x0000000000000c5a                TIM5_IRQHandler
                0x0000000000000c5c                SPI3_IRQHandler
                0x0000000000000c5e                UART4_IRQHandler
                0x0000000000000c60                UART5_IRQHandler
                0x0000000000000c62                TIM6_IRQHandler
                0x0000000000000c64                TIM7_IRQHandler
                0x0000000000000c66                DMA2_Channel1_IRQHandler
                0x0000000000000c68                DMA2_Channel2_IRQHandler
                0x0000000000000c6a                DMA2_Channel3_IRQHandler
                0x0000000000000c6c                DMA2_Channel4_IRQHandler
                0x0000000000000c6e                DMA2_Channel5_IRQHandler
                0x0000000000000c72                ETH_WKUP_IRQHandler
                0x0000000000000c74                CAN2_TX_IRQHandler
                0x0000000000000c76                CAN2_RX0_IRQHandler
                0x0000000000000c78                CAN2_RX1_IRQHandler
                0x0000000000000c7a                CAN2_SCE_IRQHandler
                0x0000000000000c7c                OTG_FS_IRQHandler
                0x0000000000000c7e                USBHSWakeup_IRQHandler
                0x0000000000000c80                USBHS_IRQHandler
                0x0000000000000c82                DVP_IRQHandler
                0x0000000000000c84                UART6_IRQHandler
                0x0000000000000c86                UART7_IRQHandler
                0x0000000000000c88                UART8_IRQHandler
                0x0000000000000c8a                TIM9_BRK_IRQHandler
                0x0000000000000c8c                TIM9_UP_IRQHandler
                0x0000000000000c8e                TIM9_TRG_COM_IRQHandler
                0x0000000000000c90                TIM9_CC_IRQHandler
                0x0000000000000c92                TIM10_BRK_IRQHandler
                0x0000000000000c94                TIM10_UP_IRQHandler
                0x0000000000000c96                TIM10_TRG_COM_IRQHandler
                0x0000000000000c98                TIM10_CC_IRQHandler
                0x0000000000000c9a                DMA2_Channel6_IRQHandler
                0x0000000000000c9c                DMA2_Channel7_IRQHandler
                0x0000000000000c9e                DMA2_Channel8_IRQHandler
                0x0000000000000ca0                DMA2_Channel9_IRQHandler
                0x0000000000000ca2                DMA2_Channel10_IRQHandler
                0x0000000000000ca4                DMA2_Channel11_IRQHandler
 .text.handle_reset
                0x0000000000000ca6       0x8e ./Startup/startup_ch32v30x_D8C.o
                0x0000000000000ca6                handle_reset
 .text.DBGMCU_GetCHIPID
                0x0000000000000d34        0xa ./Peripheral/src/ch32v30x_dbgmcu.o
                0x0000000000000d34                DBGMCU_GetCHIPID
 .text.ETH_DeInit
                0x0000000000000d3e       0x14 ./Peripheral/src/ch32v30x_eth.o
                0x0000000000000d3e                ETH_DeInit
 .text.ETH_StructInit
                0x0000000000000d52       0xd8 ./Peripheral/src/ch32v30x_eth.o
                0x0000000000000d52                ETH_StructInit
 .text.ETH_ReadPHYRegister
                0x0000000000000e2a       0x58 ./Peripheral/src/ch32v30x_eth.o
                0x0000000000000e2a                ETH_ReadPHYRegister
 .text.ETH_WritePHYRegister
                0x0000000000000e82       0x52 ./Peripheral/src/ch32v30x_eth.o
                0x0000000000000e82                ETH_WritePHYRegister
 .text.ETH_DMATxDescChainInit
                0x0000000000000ed4       0x42 ./Peripheral/src/ch32v30x_eth.o
                0x0000000000000ed4                ETH_DMATxDescChainInit
 .text.ETH_DMARxDescChainInit
                0x0000000000000f16       0x4c ./Peripheral/src/ch32v30x_eth.o
                0x0000000000000f16                ETH_DMARxDescChainInit
 .text.ETH_SoftwareReset
                0x0000000000000f62        0xe ./Peripheral/src/ch32v30x_eth.o
                0x0000000000000f62                ETH_SoftwareReset
 .text.ETH_DMAClearITPendingBit
                0x0000000000000f70        0x8 ./Peripheral/src/ch32v30x_eth.o
                0x0000000000000f70                ETH_DMAClearITPendingBit
 .text.ETH_FlushTransmitFIFO
                0x0000000000000f78       0x10 ./Peripheral/src/ch32v30x_eth.o
                0x0000000000000f78                ETH_FlushTransmitFIFO
 .text.ETH_Start
                0x0000000000000f88       0x32 ./Peripheral/src/ch32v30x_eth.o
                0x0000000000000f88                ETH_Start
 .text.ETH_DMAITConfig
                0x0000000000000fba       0x1e ./Peripheral/src/ch32v30x_eth.o
                0x0000000000000fba                ETH_DMAITConfig
 .text.EXTI_ClearITPendingBit
                0x0000000000000fd8        0xa ./Peripheral/src/ch32v30x_exti.o
                0x0000000000000fd8                EXTI_ClearITPendingBit
 .text.FLASH_Unlock
                0x0000000000000fe2       0x1a ./Peripheral/src/ch32v30x_flash.o
                0x0000000000000fe2                FLASH_Unlock
 .text.FLASH_Lock
                0x0000000000000ffc        0xe ./Peripheral/src/ch32v30x_flash.o
                0x0000000000000ffc                FLASH_Lock
 .text.FLASH_GetBank1Status
                0x000000000000100a       0x18 ./Peripheral/src/ch32v30x_flash.o
                0x000000000000100a                FLASH_GetBank1Status
 .text.FLASH_WaitForLastOperation
                0x0000000000001022       0x20 ./Peripheral/src/ch32v30x_flash.o
                0x0000000000001022                FLASH_WaitForLastOperation
 .text.FLASH_ProgramWord
                0x0000000000001042       0x4e ./Peripheral/src/ch32v30x_flash.o
                0x0000000000001042                FLASH_ProgramWord
 .text.FLASH_Unlock_Fast
                0x0000000000001090       0x1e ./Peripheral/src/ch32v30x_flash.o
                0x0000000000001090                FLASH_Unlock_Fast
 .text.FLASH_Lock_Fast
                0x00000000000010ae        0xe ./Peripheral/src/ch32v30x_flash.o
                0x00000000000010ae                FLASH_Lock_Fast
 .text.FLASH_ErasePage_Fast
                0x00000000000010bc       0x2e ./Peripheral/src/ch32v30x_flash.o
                0x00000000000010bc                FLASH_ErasePage_Fast
 .text.GPIO_Init
                0x00000000000010ea       0xc0 ./Peripheral/src/ch32v30x_gpio.o
                0x00000000000010ea                GPIO_Init
 .text.GPIO_ReadInputDataBit
                0x00000000000011aa        0xa ./Peripheral/src/ch32v30x_gpio.o
                0x00000000000011aa                GPIO_ReadInputDataBit
 .text.GPIO_SetBits
                0x00000000000011b4        0x4 ./Peripheral/src/ch32v30x_gpio.o
                0x00000000000011b4                GPIO_SetBits
 .text.GPIO_ResetBits
                0x00000000000011b8        0x4 ./Peripheral/src/ch32v30x_gpio.o
                0x00000000000011b8                GPIO_ResetBits
 .text.RCC_GetClocksFreq
                0x00000000000011bc      0x176 ./Peripheral/src/ch32v30x_rcc.o
                0x00000000000011bc                RCC_GetClocksFreq
 .text.RCC_AHBPeriphClockCmd
                0x0000000000001332       0x1e ./Peripheral/src/ch32v30x_rcc.o
                0x0000000000001332                RCC_AHBPeriphClockCmd
 .text.RCC_APB2PeriphClockCmd
                0x0000000000001350       0x1e ./Peripheral/src/ch32v30x_rcc.o
                0x0000000000001350                RCC_APB2PeriphClockCmd
 .text.RCC_APB1PeriphClockCmd
                0x000000000000136e       0x1e ./Peripheral/src/ch32v30x_rcc.o
                0x000000000000136e                RCC_APB1PeriphClockCmd
 .text.RCC_GetFlagStatus
                0x000000000000138c       0x2e ./Peripheral/src/ch32v30x_rcc.o
                0x000000000000138c                RCC_GetFlagStatus
 .text.RCC_PREDIV2Config
                0x00000000000013ba       0x10 ./Peripheral/src/ch32v30x_rcc.o
                0x00000000000013ba                RCC_PREDIV2Config
 .text.RCC_PLL3Config
                0x00000000000013ca       0x12 ./Peripheral/src/ch32v30x_rcc.o
                0x00000000000013ca                RCC_PLL3Config
 .text.RCC_PLL3Cmd
                0x00000000000013dc       0x24 ./Peripheral/src/ch32v30x_rcc.o
                0x00000000000013dc                RCC_PLL3Cmd
 .text.RCC_AHBPeriphResetCmd
                0x0000000000001400       0x1e ./Peripheral/src/ch32v30x_rcc.o
                0x0000000000001400                RCC_AHBPeriphResetCmd
 .text.TIM_TimeBaseInit
                0x000000000000141e       0xaa ./Peripheral/src/ch32v30x_tim.o
                0x000000000000141e                TIM_TimeBaseInit
 .text.TIM_Cmd  0x00000000000014c8       0x18 ./Peripheral/src/ch32v30x_tim.o
                0x00000000000014c8                TIM_Cmd
 .text.TIM_ITConfig
                0x00000000000014e0       0x12 ./Peripheral/src/ch32v30x_tim.o
                0x00000000000014e0                TIM_ITConfig
 .text.TIM_ClearITPendingBit
                0x00000000000014f2        0xc ./Peripheral/src/ch32v30x_tim.o
                0x00000000000014f2                TIM_ClearITPendingBit
 .text.USART_Init
                0x00000000000014fe       0xba ./Peripheral/src/ch32v30x_usart.o
                0x00000000000014fe                USART_Init
 .text.USART_Cmd
                0x00000000000015b8       0x16 ./Peripheral/src/ch32v30x_usart.o
                0x00000000000015b8                USART_Cmd
 .text.USART_SendData
                0x00000000000015ce        0x8 ./Peripheral/src/ch32v30x_usart.o
                0x00000000000015ce                USART_SendData
 .text.USART_GetFlagStatus
                0x00000000000015d6        0xa ./Peripheral/src/ch32v30x_usart.o
                0x00000000000015d6                USART_GetFlagStatus
 .text.ETH_TxPktChainMode
                0x00000000000015e0       0x4a ./NetLib/eth_driver.o
                0x00000000000015e0                ETH_TxPktChainMode
 .text.ETH_LedDataSet
                0x000000000000162a       0x1e ./NetLib/eth_driver.o
                0x000000000000162a                ETH_LedDataSet
 .text.ETH_LedLinkSet
                0x0000000000001648       0x1e ./NetLib/eth_driver.o
                0x0000000000001648                ETH_LedLinkSet
 .text.WCHNET_GetMacAddr
                0x0000000000001666       0x20 ./NetLib/eth_driver.o
                0x0000000000001666                WCHNET_GetMacAddr
 .text.WCHNET_TimeIsr
                0x0000000000001686        0xc ./NetLib/eth_driver.o
                0x0000000000001686                WCHNET_TimeIsr
 .text.WCHNET_LinkProcess
                0x0000000000001692      0x1a8 ./NetLib/eth_driver.o
                0x0000000000001692                WCHNET_LinkProcess
 .text.WCHNET_HandlePhyNegotiation
                0x000000000000183a       0x2c ./NetLib/eth_driver.o
                0x000000000000183a                WCHNET_HandlePhyNegotiation
 .text.WCHNET_MainTask
                0x0000000000001866       0x12 ./NetLib/eth_driver.o
                0x0000000000001866                WCHNET_MainTask
 .text.ETH_LedConfiguration
                0x0000000000001878       0x44 ./NetLib/eth_driver.o
                0x0000000000001878                ETH_LedConfiguration
 .text.ETH_SetClock
                0x00000000000018bc       0x2a ./NetLib/eth_driver.o
                0x00000000000018bc                ETH_SetClock
 .text.ETH_PHYLink
                0x00000000000018e6      0x10c ./NetLib/eth_driver.o
                0x00000000000018e6                ETH_PHYLink
 .text.ETH_RegInit
                0x00000000000019f2      0x11a ./NetLib/eth_driver.o
                0x00000000000019f2                ETH_RegInit
 .text.ETH_Configuration
                0x0000000000001b0c       0xc4 ./NetLib/eth_driver.o
                0x0000000000001b0c                ETH_Configuration
 .text.WCHNET_ETHIsr
                0x0000000000001bd0       0x7e ./NetLib/eth_driver.o
                0x0000000000001bd0                WCHNET_ETHIsr
 .text.ETH_Init
                0x0000000000001c4e       0x60 ./NetLib/eth_driver.o
                0x0000000000001c4e                ETH_Init
 .text.ETH_LibInit
                0x0000000000001cae       0x82 ./NetLib/eth_driver.o
                0x0000000000001cae                ETH_LibInit
 .text.ParseHttpRequest
                0x0000000000001d30       0x7c ./HTTP/HTTPS.o
                0x0000000000001d30                ParseHttpRequest
 .text.GetURLName
                0x0000000000001dac       0x42 ./HTTP/HTTPS.o
                0x0000000000001dac                GetURLName
 .text.ParseURLType
                0x0000000000001dee       0x6c ./HTTP/HTTPS.o
                0x0000000000001dee                ParseURLType
 .text.MakeHttpResponse
                0x0000000000001e5a       0x4e ./HTTP/HTTPS.o
                0x0000000000001e5a                MakeHttpResponse
 .text.DataLocate
                0x0000000000001ea8       0x1c ./HTTP/HTTPS.o
                0x0000000000001ea8                DataLocate
 .text.Para_DataLocate
                0x0000000000001ec4       0x1a ./HTTP/HTTPS.o
                0x0000000000001ec4                Para_DataLocate
 .text.Refresh_Html
                0x0000000000001ede       0xbc ./HTTP/HTTPS.o
                0x0000000000001ede                Refresh_Html
 .text.copy_flash
                0x0000000000001f9a       0x28 ./HTTP/HTTPS.o
                0x0000000000001f9a                copy_flash
 .text.WEB_ERASE
                0x0000000000001fc2       0x2a ./HTTP/HTTPS.o
                0x0000000000001fc2                WEB_ERASE
 .text.WEB_WRITE
                0x0000000000001fec       0x40 ./HTTP/HTTPS.o
                0x0000000000001fec                WEB_WRITE
 .text.Refresh_Basic
                0x000000000000202c      0x206 ./HTTP/HTTPS.o
                0x000000000000202c                Refresh_Basic
 .text.Refresh_Port
                0x0000000000002232      0x208 ./HTTP/HTTPS.o
                0x0000000000002232                Refresh_Port
 .text.Refresh_Login
                0x000000000000243a       0xaa ./HTTP/HTTPS.o
                0x000000000000243a                Refresh_Login
 .text.WEB_READ
                0x00000000000024e4       0x18 ./HTTP/HTTPS.o
                0x00000000000024e4                WEB_READ
 .text.Init_Para_Tab
                0x00000000000024fc      0x23a ./HTTP/HTTPS.o
                0x00000000000024fc                Init_Para_Tab
 .text.Web_Server
                0x0000000000002736      0x380 ./HTTP/HTTPS.o
                0x0000000000002736                Web_Server
 .text.Delay_Init
                0x0000000000002ab6       0x2a ./Debug/debug.o
                0x0000000000002ab6                Delay_Init
 .text.Delay_Us
                0x0000000000002ae0       0x36 ./Debug/debug.o
                0x0000000000002ae0                Delay_Us
 .text.Delay_Ms
                0x0000000000002b16       0x36 ./Debug/debug.o
                0x0000000000002b16                Delay_Ms
 .text.USART_Printf_Init
                0x0000000000002b4c       0x5a ./Debug/debug.o
                0x0000000000002b4c                USART_Printf_Init
 .text._write   0x0000000000002ba6       0x3e ./Debug/debug.o
                0x0000000000002ba6                _write
 .text._sbrk    0x0000000000002be4       0x2a ./Debug/debug.o
                0x0000000000002be4                _sbrk
 .text.__get_MEPC
                0x0000000000002c0e        0x6 ./Core/core_riscv.o
                0x0000000000002c0e                __get_MEPC
 .text.__get_MCAUSE
                0x0000000000002c14        0x6 ./Core/core_riscv.o
                0x0000000000002c14                __get_MCAUSE
 .text.__get_MTVAL
                0x0000000000002c1a        0x6 ./Core/core_riscv.o
                0x0000000000002c1a                __get_MTVAL
 .text.WCHNET_PeriodicHandle
                0x0000000000002c20      0x19a E:\VSCode\ArduinoProjects\Datasheets\CH32\CH32V307\CH32V307_EVT\Examples\ETH\NetLib\libwchnet.a(eth_api.o)
                0x0000000000002c20                WCHNET_PeriodicHandle
 .text.WCHNET_NetInput
                0x0000000000002dba       0x20 E:\VSCode\ArduinoProjects\Datasheets\CH32\CH32V307\CH32V307_EVT\Examples\ETH\NetLib\libwchnet.a(eth_api.o)
                0x0000000000002dba                WCHNET_NetInput
 .text.WCHNET_PhyStatus
                0x0000000000002dda       0x4e E:\VSCode\ArduinoProjects\Datasheets\CH32\CH32V307\CH32V307_EVT\Examples\ETH\NetLib\libwchnet.a(eth_api.o)
                0x0000000000002dda                WCHNET_PhyStatus
 .text.WCHNET_Rx
                0x0000000000002e28       0x66 E:\VSCode\ArduinoProjects\Datasheets\CH32\CH32V307\CH32V307_EVT\Examples\ETH\NetLib\libwchnet.a(eth_api.o)
                0x0000000000002e28                WCHNET_Rx
 .text.setRxBuffAddr
                0x0000000000002e8e       0x12 E:\VSCode\ArduinoProjects\Datasheets\CH32\CH32V307\CH32V307_EVT\Examples\ETH\NetLib\libwchnet.a(eth_api.o)
                0x0000000000002e8e                setRxBuffAddr
 .text.WCHNET_Tx
                0x0000000000002ea0       0x32 E:\VSCode\ArduinoProjects\Datasheets\CH32\CH32V307\CH32V307_EVT\Examples\ETH\NetLib\libwchnet.a(eth_api.o)
                0x0000000000002ea0                WCHNET_Tx
 .text.getTxBuffAddr
                0x0000000000002ed2       0x4c E:\VSCode\ArduinoProjects\Datasheets\CH32\CH32V307\CH32V307_EVT\Examples\ETH\NetLib\libwchnet.a(eth_api.o)
                0x0000000000002ed2                getTxBuffAddr
 .text.IPCheckParaInit
                0x0000000000002f1e       0x1e E:\VSCode\ArduinoProjects\Datasheets\CH32\CH32V307\CH32V307_EVT\Examples\ETH\NetLib\libwchnet.a(ipcheck.o)
                0x0000000000002f1e                IPCheckParaInit
 .text.SelIPARPSend
                0x0000000000002f3c       0x38 E:\VSCode\ArduinoProjects\Datasheets\CH32\CH32V307\CH32V307_EVT\Examples\ETH\NetLib\libwchnet.a(ipcheck.o)
                0x0000000000002f3c                SelIPARPSend
 .text.IPCheckTmr
                0x0000000000002f74       0x42 E:\VSCode\ArduinoProjects\Datasheets\CH32\CH32V307\CH32V307_EVT\Examples\ETH\NetLib\libwchnet.a(ipcheck.o)
                0x0000000000002f74                IPCheckTmr
 .text.IPConflictHandle
                0x0000000000002fb6       0x2e E:\VSCode\ArduinoProjects\Datasheets\CH32\CH32V307\CH32V307_EVT\Examples\ETH\NetLib\libwchnet.a(ipcheck.o)
                0x0000000000002fb6                IPConflictHandle
 .text.NET_TCPError
                0x0000000000002fe4        0x2 E:\VSCode\ArduinoProjects\Datasheets\CH32\CH32V307\CH32V307_EVT\Examples\ETH\NetLib\libwchnet.a(socket.o)
                0x0000000000002fe4                NET_TCPError
 .text.LwipTCPSendCallBack
                0x0000000000002fe6       0x3e E:\VSCode\ArduinoProjects\Datasheets\CH32\CH32V307\CH32V307_EVT\Examples\ETH\NetLib\libwchnet.a(socket.o)
                0x0000000000002fe6                LwipTCPSendCallBack
 .text.LwipTCPPollCallBack
                0x0000000000003024        0x4 E:\VSCode\ArduinoProjects\Datasheets\CH32\CH32V307\CH32V307_EVT\Examples\ETH\NetLib\libwchnet.a(socket.o)
                0x0000000000003024                LwipTCPPollCallBack
 .text.SocketIPRAWReceive
                0x0000000000003028       0xc0 E:\VSCode\ArduinoProjects\Datasheets\CH32\CH32V307\CH32V307_EVT\Examples\ETH\NetLib\libwchnet.a(socket.o)
                0x0000000000003028                SocketIPRAWReceive
 .text.SocketUdpReceive
                0x00000000000030e8       0xd6 E:\VSCode\ArduinoProjects\Datasheets\CH32\CH32V307\CH32V307_EVT\Examples\ETH\NetLib\libwchnet.a(socket.o)
                0x00000000000030e8                SocketUdpReceive
 .text.WCHSocketTCPReceive
                0x00000000000031be       0xd2 E:\VSCode\ArduinoProjects\Datasheets\CH32\CH32V307\CH32V307_EVT\Examples\ETH\NetLib\libwchnet.a(socket.o)
                0x00000000000031be                WCHSocketTCPReceive
 .text.LwipTcpConnectedCallBack
                0x0000000000003290       0x42 E:\VSCode\ArduinoProjects\Datasheets\CH32\CH32V307\CH32V307_EVT\Examples\ETH\NetLib\libwchnet.a(socket.o)
                0x0000000000003290                LwipTcpConnectedCallBack
 .text.WCHTCPServerAccept
                0x00000000000032d2       0xc6 E:\VSCode\ArduinoProjects\Datasheets\CH32\CH32V307\CH32V307_EVT\Examples\ETH\NetLib\libwchnet.a(socket.o)
                0x00000000000032d2                WCHTCPServerAccept
 .text.ErrorEncode
                0x0000000000003398       0x1a E:\VSCode\ArduinoProjects\Datasheets\CH32\CH32V307\CH32V307_EVT\Examples\ETH\NetLib\libwchnet.a(socket.o)
                0x0000000000003398                ErrorEncode
 .text.WCHSocketInit
                0x00000000000033b2       0x4c E:\VSCode\ArduinoProjects\Datasheets\CH32\CH32V307\CH32V307_EVT\Examples\ETH\NetLib\libwchnet.a(socket.o)
                0x00000000000033b2                WCHSocketInit
 .text.WCHNET_Init
                0x00000000000033fe       0xac E:\VSCode\ArduinoProjects\Datasheets\CH32\CH32V307\CH32V307_EVT\Examples\ETH\NetLib\libwchnet.a(socket.o)
                0x00000000000033fe                WCHNET_Init
 .text.WCHNET_ConfigLIB
                0x00000000000034aa      0x120 E:\VSCode\ArduinoProjects\Datasheets\CH32\CH32V307\CH32V307_EVT\Examples\ETH\NetLib\libwchnet.a(socket.o)
                0x00000000000034aa                WCHNET_ConfigLIB
 .text.WCHNET_GetVer
                0x00000000000035ca        0x4 E:\VSCode\ArduinoProjects\Datasheets\CH32\CH32V307\CH32V307_EVT\Examples\ETH\NetLib\libwchnet.a(socket.o)
                0x00000000000035ca                WCHNET_GetVer
 .text.WCHFindCorrectTCBPcb
                0x00000000000035ce       0x5e E:\VSCode\ArduinoProjects\Datasheets\CH32\CH32V307\CH32V307_EVT\Examples\ETH\NetLib\libwchnet.a(socket.o)
                0x00000000000035ce                WCHFindCorrectTCBPcb
 .text.WCHNET_SocketCreat
                0x000000000000362c      0x1d2 E:\VSCode\ArduinoProjects\Datasheets\CH32\CH32V307\CH32V307_EVT\Examples\ETH\NetLib\libwchnet.a(socket.o)
                0x000000000000362c                WCHNET_SocketCreat
 .text.tcp_recved_socket
                0x00000000000037fe       0x36 E:\VSCode\ArduinoProjects\Datasheets\CH32\CH32V307\CH32V307_EVT\Examples\ETH\NetLib\libwchnet.a(socket.o)
                0x00000000000037fe                tcp_recved_socket
 .text.WCHNET_ModifyRecvBuf
                0x0000000000003834       0x52 E:\VSCode\ArduinoProjects\Datasheets\CH32\CH32V307\CH32V307_EVT\Examples\ETH\NetLib\libwchnet.a(socket.o)
                0x0000000000003834                WCHNET_ModifyRecvBuf
 .text.WCHNET_SocketRecv
                0x0000000000003886       0xf4 E:\VSCode\ArduinoProjects\Datasheets\CH32\CH32V307\CH32V307_EVT\Examples\ETH\NetLib\libwchnet.a(socket.o)
                0x0000000000003886                WCHNET_SocketRecv
 .text.WCHNET_SocketRecvLen
                0x000000000000397a       0x26 E:\VSCode\ArduinoProjects\Datasheets\CH32\CH32V307\CH32V307_EVT\Examples\ETH\NetLib\libwchnet.a(socket.o)
                0x000000000000397a                WCHNET_SocketRecvLen
 .text.SocketIPRawSend
                0x00000000000039a0       0xbe E:\VSCode\ArduinoProjects\Datasheets\CH32\CH32V307\CH32V307_EVT\Examples\ETH\NetLib\libwchnet.a(socket.o)
                0x00000000000039a0                SocketIPRawSend
 .text.SocketUdpSend
                0x0000000000003a5e       0xbe E:\VSCode\ArduinoProjects\Datasheets\CH32\CH32V307\CH32V307_EVT\Examples\ETH\NetLib\libwchnet.a(socket.o)
                0x0000000000003a5e                SocketUdpSend
 .text.SocketTcpSend
                0x0000000000003b1c      0x100 E:\VSCode\ArduinoProjects\Datasheets\CH32\CH32V307\CH32V307_EVT\Examples\ETH\NetLib\libwchnet.a(socket.o)
                0x0000000000003b1c                SocketTcpSend
 .text.WCHNET_SocketSend
                0x0000000000003c1c       0x56 E:\VSCode\ArduinoProjects\Datasheets\CH32\CH32V307\CH32V307_EVT\Examples\ETH\NetLib\libwchnet.a(socket.o)
                0x0000000000003c1c                WCHNET_SocketSend
 .text.WCHScokedIntHandle
                0x0000000000003c72       0x52 E:\VSCode\ArduinoProjects\Datasheets\CH32\CH32V307\CH32V307_EVT\Examples\ETH\NetLib\libwchnet.a(socket.o)
                0x0000000000003c72                WCHScokedIntHandle
 .text.LwipRemoveTcpPcb
                0x0000000000003cc4       0xa6 E:\VSCode\ArduinoProjects\Datasheets\CH32\CH32V307\CH32V307_EVT\Examples\ETH\NetLib\libwchnet.a(socket.o)
                0x0000000000003cc4                LwipRemoveTcpPcb
 .text.WCHNET_QueryGlobalInt
                0x0000000000003d6a       0x3e E:\VSCode\ArduinoProjects\Datasheets\CH32\CH32V307\CH32V307_EVT\Examples\ETH\NetLib\libwchnet.a(socket.o)
                0x0000000000003d6a                WCHNET_QueryGlobalInt
 .text.WCHNET_GetGlobalInt
                0x0000000000003da8       0x14 E:\VSCode\ArduinoProjects\Datasheets\CH32\CH32V307\CH32V307_EVT\Examples\ETH\NetLib\libwchnet.a(socket.o)
                0x0000000000003da8                WCHNET_GetGlobalInt
 .text.WCHNET_GetSocketInt
                0x0000000000003dbc       0x2a E:\VSCode\ArduinoProjects\Datasheets\CH32\CH32V307\CH32V307_EVT\Examples\ETH\NetLib\libwchnet.a(socket.o)
                0x0000000000003dbc                WCHNET_GetSocketInt
 .text.WCHNET_GetPHYStatus
                0x0000000000003de6        0xa E:\VSCode\ArduinoProjects\Datasheets\CH32\CH32V307\CH32V307_EVT\Examples\ETH\NetLib\libwchnet.a(socket.o)
                0x0000000000003de6                WCHNET_GetPHYStatus
 .text.WCHNET_SocketConnect
                0x0000000000003df0       0x6c E:\VSCode\ArduinoProjects\Datasheets\CH32\CH32V307\CH32V307_EVT\Examples\ETH\NetLib\libwchnet.a(socket.o)
                0x0000000000003df0                WCHNET_SocketConnect
 .text.WCHNET_SocketListen
                0x0000000000003e5c       0x6e E:\VSCode\ArduinoProjects\Datasheets\CH32\CH32V307\CH32V307_EVT\Examples\ETH\NetLib\libwchnet.a(socket.o)
                0x0000000000003e5c                WCHNET_SocketListen
 .text.CloseUpdConnect
                0x0000000000003eca       0x38 E:\VSCode\ArduinoProjects\Datasheets\CH32\CH32V307\CH32V307_EVT\Examples\ETH\NetLib\libwchnet.a(socket.o)
                0x0000000000003eca                CloseUpdConnect
 .text.CloseIPRAWConnect
                0x0000000000003f02       0x38 E:\VSCode\ArduinoProjects\Datasheets\CH32\CH32V307\CH32V307_EVT\Examples\ETH\NetLib\libwchnet.a(socket.o)
                0x0000000000003f02                CloseIPRAWConnect
 .text.CloseTcpPCB
                0x0000000000003f3a       0x7c E:\VSCode\ArduinoProjects\Datasheets\CH32\CH32V307\CH32V307_EVT\Examples\ETH\NetLib\libwchnet.a(socket.o)
                0x0000000000003f3a                CloseTcpPCB
 .text.WCHNET_SocketClose
                0x0000000000003fb6       0x60 E:\VSCode\ArduinoProjects\Datasheets\CH32\CH32V307\CH32V307_EVT\Examples\ETH\NetLib\libwchnet.a(socket.o)
                0x0000000000003fb6                WCHNET_SocketClose
 .text.QueryPingEnable
                0x0000000000004016        0xe E:\VSCode\ArduinoProjects\Datasheets\CH32\CH32V307\CH32V307_EVT\Examples\ETH\NetLib\libwchnet.a(socket.o)
                0x0000000000004016                QueryPingEnable
 .text.LwipUnreachPort
                0x0000000000004024       0x1a E:\VSCode\ArduinoProjects\Datasheets\CH32\CH32V307\CH32V307_EVT\Examples\ETH\NetLib\libwchnet.a(socket.o)
                0x0000000000004024                LwipUnreachPort
 .text.LwipArpCheck
                0x000000000000403e        0xc E:\VSCode\ArduinoProjects\Datasheets\CH32\CH32V307\CH32V307_EVT\Examples\ETH\NetLib\libwchnet.a(socket.o)
                0x000000000000403e                LwipArpCheck
 .text.find_entry
                0x000000000000404a      0x17e E:\VSCode\ArduinoProjects\Datasheets\CH32\CH32V307\CH32V307_EVT\Examples\ETH\NetLib\libwchnet.a(etharp.o)
 .text.update_arp_entry
                0x00000000000041c8       0xae E:\VSCode\ArduinoProjects\Datasheets\CH32\CH32V307\CH32V307_EVT\Examples\ETH\NetLib\libwchnet.a(etharp.o)
 .text.etharp_tmr
                0x0000000000004276       0x4e E:\VSCode\ArduinoProjects\Datasheets\CH32\CH32V307\CH32V307_EVT\Examples\ETH\NetLib\libwchnet.a(etharp.o)
                0x0000000000004276                etharp_tmr
 .text.etharp_ip_input
                0x00000000000042c4       0x5a E:\VSCode\ArduinoProjects\Datasheets\CH32\CH32V307\CH32V307_EVT\Examples\ETH\NetLib\libwchnet.a(etharp.o)
                0x00000000000042c4                etharp_ip_input
 .text.etharp_arp_input
                0x000000000000431e      0x168 E:\VSCode\ArduinoProjects\Datasheets\CH32\CH32V307\CH32V307_EVT\Examples\ETH\NetLib\libwchnet.a(etharp.o)
                0x000000000000431e                etharp_arp_input
 .text.etharp_request
                0x0000000000004486       0xce E:\VSCode\ArduinoProjects\Datasheets\CH32\CH32V307\CH32V307_EVT\Examples\ETH\NetLib\libwchnet.a(etharp.o)
                0x0000000000004486                etharp_request
 .text.etharp_query
                0x0000000000004554       0xe2 E:\VSCode\ArduinoProjects\Datasheets\CH32\CH32V307\CH32V307_EVT\Examples\ETH\NetLib\libwchnet.a(etharp.o)
                0x0000000000004554                etharp_query
 .text.etharp_output
                0x0000000000004636      0x134 E:\VSCode\ArduinoProjects\Datasheets\CH32\CH32V307\CH32V307_EVT\Examples\ETH\NetLib\libwchnet.a(etharp.o)
                0x0000000000004636                etharp_output
 .text.ethernet_input
                0x000000000000476a       0x86 E:\VSCode\ArduinoProjects\Datasheets\CH32\CH32V307\CH32V307_EVT\Examples\ETH\NetLib\libwchnet.a(etharp.o)
                0x000000000000476a                ethernet_input
 .text.ethernetif_init
                0x00000000000047f0       0x64 E:\VSCode\ArduinoProjects\Datasheets\CH32\CH32V307\CH32V307_EVT\Examples\ETH\NetLib\libwchnet.a(ethernetif.o)
                0x00000000000047f0                ethernetif_init
 .text.low_level_output
                0x0000000000004854       0x52 E:\VSCode\ArduinoProjects\Datasheets\CH32\CH32V307\CH32V307_EVT\Examples\ETH\NetLib\libwchnet.a(ethernetif.o)
 .text.ethernetif_input
                0x00000000000048a6       0x70 E:\VSCode\ArduinoProjects\Datasheets\CH32\CH32V307\CH32V307_EVT\Examples\ETH\NetLib\libwchnet.a(ethernetif.o)
                0x00000000000048a6                ethernetif_input
 .text.wch_ethernetif_init
                0x0000000000004916       0x76 E:\VSCode\ArduinoProjects\Datasheets\CH32\CH32V307\CH32V307_EVT\Examples\ETH\NetLib\libwchnet.a(ethernetif.o)
                0x0000000000004916                wch_ethernetif_init
 .text.htons    0x000000000000498c        0xe E:\VSCode\ArduinoProjects\Datasheets\CH32\CH32V307\CH32V307_EVT\Examples\ETH\NetLib\libwchnet.a(inet.o)
                0x000000000000498c                htons
 .text.ntohs    0x000000000000499a        0xe E:\VSCode\ArduinoProjects\Datasheets\CH32\CH32V307\CH32V307_EVT\Examples\ETH\NetLib\libwchnet.a(inet.o)
                0x000000000000499a                ntohs
 .text.htonl    0x00000000000049a8       0x24 E:\VSCode\ArduinoProjects\Datasheets\CH32\CH32V307\CH32V307_EVT\Examples\ETH\NetLib\libwchnet.a(inet.o)
                0x00000000000049a8                htonl
 .text.ntohl    0x00000000000049cc        0xc E:\VSCode\ArduinoProjects\Datasheets\CH32\CH32V307\CH32V307_EVT\Examples\ETH\NetLib\libwchnet.a(inet.o)
                0x00000000000049cc                ntohl
 .text.ip_route
                0x00000000000049d8       0x4c E:\VSCode\ArduinoProjects\Datasheets\CH32\CH32V307\CH32V307_EVT\Examples\ETH\NetLib\libwchnet.a(ip.o)
                0x00000000000049d8                ip_route
 .text.ip_input
                0x0000000000004a24      0x29a E:\VSCode\ArduinoProjects\Datasheets\CH32\CH32V307\CH32V307_EVT\Examples\ETH\NetLib\libwchnet.a(ip.o)
                0x0000000000004a24                ip_input
 .text.ip_output_if
                0x0000000000004cbe      0x15a E:\VSCode\ArduinoProjects\Datasheets\CH32\CH32V307\CH32V307_EVT\Examples\ETH\NetLib\libwchnet.a(ip.o)
                0x0000000000004cbe                ip_output_if
 .text.ip_output
                0x0000000000004e18       0x36 E:\VSCode\ArduinoProjects\Datasheets\CH32\CH32V307\CH32V307_EVT\Examples\ETH\NetLib\libwchnet.a(ip.o)
                0x0000000000004e18                ip_output
 .text.ip_addr_isbroadcast
                0x0000000000004e4e       0x4a E:\VSCode\ArduinoProjects\Datasheets\CH32\CH32V307\CH32V307_EVT\Examples\ETH\NetLib\libwchnet.a(ip_addr.o)
                0x0000000000004e4e                ip_addr_isbroadcast
 .text.ip_reass_tmr
                0x0000000000004e98       0xe6 E:\VSCode\ArduinoProjects\Datasheets\CH32\CH32V307\CH32V307_EVT\Examples\ETH\NetLib\libwchnet.a(ip_frag.o)
                0x0000000000004e98                ip_reass_tmr
 .text.ip_reass
                0x0000000000004f7e      0x3dc E:\VSCode\ArduinoProjects\Datasheets\CH32\CH32V307\CH32V307_EVT\Examples\ETH\NetLib\libwchnet.a(ip_frag.o)
                0x0000000000004f7e                ip_reass
 .text.ip_frag  0x000000000000535a      0x17e E:\VSCode\ArduinoProjects\Datasheets\CH32\CH32V307\CH32V307_EVT\Examples\ETH\NetLib\libwchnet.a(ip_frag.o)
                0x000000000000535a                ip_frag
 .text.dhcp_set_state
                0x00000000000054d8        0xe E:\VSCode\ArduinoProjects\Datasheets\CH32\CH32V307\CH32V307_EVT\Examples\ETH\NetLib\libwchnet.a(dhcp.o)
 .text.dhcp_option
                0x00000000000054e6       0x20 E:\VSCode\ArduinoProjects\Datasheets\CH32\CH32V307\CH32V307_EVT\Examples\ETH\NetLib\libwchnet.a(dhcp.o)
 .text.dhcp_option_byte
                0x0000000000005506       0x12 E:\VSCode\ArduinoProjects\Datasheets\CH32\CH32V307\CH32V307_EVT\Examples\ETH\NetLib\libwchnet.a(dhcp.o)
 .text.dhcp_option_long
                0x0000000000005518       0x48 E:\VSCode\ArduinoProjects\Datasheets\CH32\CH32V307\CH32V307_EVT\Examples\ETH\NetLib\libwchnet.a(dhcp.o)
 .text.dhcp_option_trailer
                0x0000000000005560       0x34 E:\VSCode\ArduinoProjects\Datasheets\CH32\CH32V307\CH32V307_EVT\Examples\ETH\NetLib\libwchnet.a(dhcp.o)
 .text.dhcp_create_request
                0x0000000000005594      0x17e E:\VSCode\ArduinoProjects\Datasheets\CH32\CH32V307\CH32V307_EVT\Examples\ETH\NetLib\libwchnet.a(dhcp.o)
 .text.dhcp_delete_request
                0x0000000000005712       0x1e E:\VSCode\ArduinoProjects\Datasheets\CH32\CH32V307\CH32V307_EVT\Examples\ETH\NetLib\libwchnet.a(dhcp.o)
 .text.dhcp_arp_reply
                0x0000000000005730      0x182 E:\VSCode\ArduinoProjects\Datasheets\CH32\CH32V307\CH32V307_EVT\Examples\ETH\NetLib\libwchnet.a(dhcp.o)
                0x0000000000005730                dhcp_arp_reply
 .text.lwip_init
                0x00000000000058b2       0x18 E:\VSCode\ArduinoProjects\Datasheets\CH32\CH32V307\CH32V307_EVT\Examples\ETH\NetLib\libwchnet.a(init.o)
                0x00000000000058b2                lwip_init
 .text.mem_init
                0x00000000000058ca       0x3e E:\VSCode\ArduinoProjects\Datasheets\CH32\CH32V307\CH32V307_EVT\Examples\ETH\NetLib\libwchnet.a(mem.o)
                0x00000000000058ca                mem_init
 .text.mem_free
                0x0000000000005908       0x84 E:\VSCode\ArduinoProjects\Datasheets\CH32\CH32V307\CH32V307_EVT\Examples\ETH\NetLib\libwchnet.a(mem.o)
                0x0000000000005908                mem_free
 .text.mem_realloc
                0x000000000000598c       0xca E:\VSCode\ArduinoProjects\Datasheets\CH32\CH32V307\CH32V307_EVT\Examples\ETH\NetLib\libwchnet.a(mem.o)
                0x000000000000598c                mem_realloc
 .text.mem_malloc
                0x0000000000005a56       0xd0 E:\VSCode\ArduinoProjects\Datasheets\CH32\CH32V307\CH32V307_EVT\Examples\ETH\NetLib\libwchnet.a(mem.o)
                0x0000000000005a56                mem_malloc
 .text.memp_init
                0x0000000000005b26       0x50 E:\VSCode\ArduinoProjects\Datasheets\CH32\CH32V307\CH32V307_EVT\Examples\ETH\NetLib\libwchnet.a(memp.o)
                0x0000000000005b26                memp_init
 .text.memp_malloc
                0x0000000000005b76       0x20 E:\VSCode\ArduinoProjects\Datasheets\CH32\CH32V307\CH32V307_EVT\Examples\ETH\NetLib\libwchnet.a(memp.o)
                0x0000000000005b76                memp_malloc
 .text.memp_free
                0x0000000000005b96       0x18 E:\VSCode\ArduinoProjects\Datasheets\CH32\CH32V307\CH32V307_EVT\Examples\ETH\NetLib\libwchnet.a(memp.o)
                0x0000000000005b96                memp_free
 .text.netif_set_ipaddr
                0x0000000000005bae       0x96 E:\VSCode\ArduinoProjects\Datasheets\CH32\CH32V307\CH32V307_EVT\Examples\ETH\NetLib\libwchnet.a(netif.o)
                0x0000000000005bae                netif_set_ipaddr
 .text.netif_set_addr
                0x0000000000005c44       0x4e E:\VSCode\ArduinoProjects\Datasheets\CH32\CH32V307\CH32V307_EVT\Examples\ETH\NetLib\libwchnet.a(netif.o)
                0x0000000000005c44                netif_set_addr
 .text.netif_add
                0x0000000000005c92       0x5a E:\VSCode\ArduinoProjects\Datasheets\CH32\CH32V307\CH32V307_EVT\Examples\ETH\NetLib\libwchnet.a(netif.o)
                0x0000000000005c92                netif_add
 .text.netif_set_default
                0x0000000000005cec        0x6 E:\VSCode\ArduinoProjects\Datasheets\CH32\CH32V307\CH32V307_EVT\Examples\ETH\NetLib\libwchnet.a(netif.o)
                0x0000000000005cec                netif_set_default
 .text.netif_is_up
                0x0000000000005cf2        0x8 E:\VSCode\ArduinoProjects\Datasheets\CH32\CH32V307\CH32V307_EVT\Examples\ETH\NetLib\libwchnet.a(netif.o)
                0x0000000000005cf2                netif_is_up
 .text.pbuf_header
                0x0000000000005cfa       0x6e E:\VSCode\ArduinoProjects\Datasheets\CH32\CH32V307\CH32V307_EVT\Examples\ETH\NetLib\libwchnet.a(pbuf.o)
                0x0000000000005cfa                pbuf_header
 .text.pbuf_free
                0x0000000000005d68       0x4e E:\VSCode\ArduinoProjects\Datasheets\CH32\CH32V307\CH32V307_EVT\Examples\ETH\NetLib\libwchnet.a(pbuf.o)
                0x0000000000005d68                pbuf_free
 .text.pbuf_alloc
                0x0000000000005db6      0x140 E:\VSCode\ArduinoProjects\Datasheets\CH32\CH32V307\CH32V307_EVT\Examples\ETH\NetLib\libwchnet.a(pbuf.o)
                0x0000000000005db6                pbuf_alloc
 .text.pbuf_realloc
                0x0000000000005ef6       0x58 E:\VSCode\ArduinoProjects\Datasheets\CH32\CH32V307\CH32V307_EVT\Examples\ETH\NetLib\libwchnet.a(pbuf.o)
                0x0000000000005ef6                pbuf_realloc
 .text.pbuf_clen
                0x0000000000005f4e       0x12 E:\VSCode\ArduinoProjects\Datasheets\CH32\CH32V307\CH32V307_EVT\Examples\ETH\NetLib\libwchnet.a(pbuf.o)
                0x0000000000005f4e                pbuf_clen
 .text.pbuf_ref
                0x0000000000005f60        0xa E:\VSCode\ArduinoProjects\Datasheets\CH32\CH32V307\CH32V307_EVT\Examples\ETH\NetLib\libwchnet.a(pbuf.o)
                0x0000000000005f60                pbuf_ref
 .text.pbuf_cat
                0x0000000000005f6a       0x1c E:\VSCode\ArduinoProjects\Datasheets\CH32\CH32V307\CH32V307_EVT\Examples\ETH\NetLib\libwchnet.a(pbuf.o)
                0x0000000000005f6a                pbuf_cat
 .text.pbuf_chain
                0x0000000000005f86       0x14 E:\VSCode\ArduinoProjects\Datasheets\CH32\CH32V307\CH32V307_EVT\Examples\ETH\NetLib\libwchnet.a(pbuf.o)
                0x0000000000005f86                pbuf_chain
 .text.pbuf_copy
                0x0000000000005f9a       0x9c E:\VSCode\ArduinoProjects\Datasheets\CH32\CH32V307\CH32V307_EVT\Examples\ETH\NetLib\libwchnet.a(pbuf.o)
                0x0000000000005f9a                pbuf_copy
 .text.raw_input
                0x0000000000006036       0x68 E:\VSCode\ArduinoProjects\Datasheets\CH32\CH32V307\CH32V307_EVT\Examples\ETH\NetLib\libwchnet.a(raw.o)
                0x0000000000006036                raw_input
 .text.raw_bind
                0x000000000000609e       0x1e E:\VSCode\ArduinoProjects\Datasheets\CH32\CH32V307\CH32V307_EVT\Examples\ETH\NetLib\libwchnet.a(raw.o)
                0x000000000000609e                raw_bind
 .text.raw_connect
                0x00000000000060bc       0x1e E:\VSCode\ArduinoProjects\Datasheets\CH32\CH32V307\CH32V307_EVT\Examples\ETH\NetLib\libwchnet.a(raw.o)
                0x00000000000060bc                raw_connect
 .text.raw_recv
                0x00000000000060da        0x6 E:\VSCode\ArduinoProjects\Datasheets\CH32\CH32V307\CH32V307_EVT\Examples\ETH\NetLib\libwchnet.a(raw.o)
                0x00000000000060da                raw_recv
 .text.raw_sendto
                0x00000000000060e0       0x7e E:\VSCode\ArduinoProjects\Datasheets\CH32\CH32V307\CH32V307_EVT\Examples\ETH\NetLib\libwchnet.a(raw.o)
                0x00000000000060e0                raw_sendto
 .text.raw_send
                0x000000000000615e       0x10 E:\VSCode\ArduinoProjects\Datasheets\CH32\CH32V307\CH32V307_EVT\Examples\ETH\NetLib\libwchnet.a(raw.o)
                0x000000000000615e                raw_send
 .text.raw_remove
                0x000000000000616e       0x30 E:\VSCode\ArduinoProjects\Datasheets\CH32\CH32V307\CH32V307_EVT\Examples\ETH\NetLib\libwchnet.a(raw.o)
                0x000000000000616e                raw_remove
 .text.raw_new  0x000000000000619e       0x30 E:\VSCode\ArduinoProjects\Datasheets\CH32\CH32V307\CH32V307_EVT\Examples\ETH\NetLib\libwchnet.a(raw.o)
                0x000000000000619e                raw_new
 .text.tcp_accept_null
                0x00000000000061ce        0x4 E:\VSCode\ArduinoProjects\Datasheets\CH32\CH32V307\CH32V307_EVT\Examples\ETH\NetLib\libwchnet.a(tcp.o)
 .text.tcp_new_port
                0x00000000000061d2       0x5c E:\VSCode\ArduinoProjects\Datasheets\CH32\CH32V307\CH32V307_EVT\Examples\ETH\NetLib\libwchnet.a(tcp.o)
 .text.tcp_bind
                0x000000000000622e      0x116 E:\VSCode\ArduinoProjects\Datasheets\CH32\CH32V307\CH32V307_EVT\Examples\ETH\NetLib\libwchnet.a(tcp.o)
                0x000000000000622e                tcp_bind
 .text.tcp_listen_with_backlog
                0x0000000000006344       0x9a E:\VSCode\ArduinoProjects\Datasheets\CH32\CH32V307\CH32V307_EVT\Examples\ETH\NetLib\libwchnet.a(tcp.o)
                0x0000000000006344                tcp_listen_with_backlog
 .text.tcp_update_rcv_ann_wnd
                0x00000000000063de       0x48 E:\VSCode\ArduinoProjects\Datasheets\CH32\CH32V307\CH32V307_EVT\Examples\ETH\NetLib\libwchnet.a(tcp.o)
                0x00000000000063de                tcp_update_rcv_ann_wnd
 .text.tcp_recved
                0x0000000000006426       0x3c E:\VSCode\ArduinoProjects\Datasheets\CH32\CH32V307\CH32V307_EVT\Examples\ETH\NetLib\libwchnet.a(tcp.o)
                0x0000000000006426                tcp_recved
 .text.tcp_seg_free
                0x0000000000006462       0x2a E:\VSCode\ArduinoProjects\Datasheets\CH32\CH32V307\CH32V307_EVT\Examples\ETH\NetLib\libwchnet.a(tcp.o)
                0x0000000000006462                tcp_seg_free
 .text.tcp_segs_free
                0x000000000000648c       0x1e E:\VSCode\ArduinoProjects\Datasheets\CH32\CH32V307\CH32V307_EVT\Examples\ETH\NetLib\libwchnet.a(tcp.o)
                0x000000000000648c                tcp_segs_free
 .text.tcp_seg_copy
                0x00000000000064aa       0x28 E:\VSCode\ArduinoProjects\Datasheets\CH32\CH32V307\CH32V307_EVT\Examples\ETH\NetLib\libwchnet.a(tcp.o)
                0x00000000000064aa                tcp_seg_copy
 .text.tcp_arg  0x00000000000064d2        0x4 E:\VSCode\ArduinoProjects\Datasheets\CH32\CH32V307\CH32V307_EVT\Examples\ETH\NetLib\libwchnet.a(tcp.o)
                0x00000000000064d2                tcp_arg
 .text.tcp_recv
                0x00000000000064d6        0x6 E:\VSCode\ArduinoProjects\Datasheets\CH32\CH32V307\CH32V307_EVT\Examples\ETH\NetLib\libwchnet.a(tcp.o)
                0x00000000000064d6                tcp_recv
 .text.tcp_sent
                0x00000000000064dc        0x6 E:\VSCode\ArduinoProjects\Datasheets\CH32\CH32V307\CH32V307_EVT\Examples\ETH\NetLib\libwchnet.a(tcp.o)
                0x00000000000064dc                tcp_sent
 .text.tcp_err  0x00000000000064e2        0x6 E:\VSCode\ArduinoProjects\Datasheets\CH32\CH32V307\CH32V307_EVT\Examples\ETH\NetLib\libwchnet.a(tcp.o)
                0x00000000000064e2                tcp_err
 .text.tcp_accept
                0x00000000000064e8        0x4 E:\VSCode\ArduinoProjects\Datasheets\CH32\CH32V307\CH32V307_EVT\Examples\ETH\NetLib\libwchnet.a(tcp.o)
                0x00000000000064e8                tcp_accept
 .text.tcp_poll
                0x00000000000064ec        0xa E:\VSCode\ArduinoProjects\Datasheets\CH32\CH32V307\CH32V307_EVT\Examples\ETH\NetLib\libwchnet.a(tcp.o)
                0x00000000000064ec                tcp_poll
 .text.tcp_pcb_purge
                0x00000000000064f6       0x4e E:\VSCode\ArduinoProjects\Datasheets\CH32\CH32V307\CH32V307_EVT\Examples\ETH\NetLib\libwchnet.a(tcp.o)
                0x00000000000064f6                tcp_pcb_purge
 .text.tcp_slowtmr
                0x0000000000006544      0x29e E:\VSCode\ArduinoProjects\Datasheets\CH32\CH32V307\CH32V307_EVT\Examples\ETH\NetLib\libwchnet.a(tcp.o)
                0x0000000000006544                tcp_slowtmr
 .text.tcp_pcb_remove
                0x00000000000067e2       0x72 E:\VSCode\ArduinoProjects\Datasheets\CH32\CH32V307\CH32V307_EVT\Examples\ETH\NetLib\libwchnet.a(tcp.o)
                0x00000000000067e2                tcp_pcb_remove
 .text.tcp_close
                0x0000000000006854       0xb2 E:\VSCode\ArduinoProjects\Datasheets\CH32\CH32V307\CH32V307_EVT\Examples\ETH\NetLib\libwchnet.a(tcp.o)
                0x0000000000006854                tcp_close
 .text.tcp_recv_null
                0x0000000000006906       0x30 E:\VSCode\ArduinoProjects\Datasheets\CH32\CH32V307\CH32V307_EVT\Examples\ETH\NetLib\libwchnet.a(tcp.o)
                0x0000000000006906                tcp_recv_null
 .text.tcp_fasttmr
                0x0000000000006936       0x62 E:\VSCode\ArduinoProjects\Datasheets\CH32\CH32V307\CH32V307_EVT\Examples\ETH\NetLib\libwchnet.a(tcp.o)
                0x0000000000006936                tcp_fasttmr
 .text.tcp_tmr  0x0000000000006998       0x22 E:\VSCode\ArduinoProjects\Datasheets\CH32\CH32V307\CH32V307_EVT\Examples\ETH\NetLib\libwchnet.a(tcp.o)
                0x0000000000006998                tcp_tmr
 .text.tcp_abandon
                0x00000000000069ba       0x9a E:\VSCode\ArduinoProjects\Datasheets\CH32\CH32V307\CH32V307_EVT\Examples\ETH\NetLib\libwchnet.a(tcp.o)
                0x00000000000069ba                tcp_abandon
 .text.tcp_next_iss
                0x0000000000006a54       0x10 E:\VSCode\ArduinoProjects\Datasheets\CH32\CH32V307\CH32V307_EVT\Examples\ETH\NetLib\libwchnet.a(tcp.o)
                0x0000000000006a54                tcp_next_iss
 .text.tcp_alloc
                0x0000000000006a64      0x134 E:\VSCode\ArduinoProjects\Datasheets\CH32\CH32V307\CH32V307_EVT\Examples\ETH\NetLib\libwchnet.a(tcp.o)
                0x0000000000006a64                tcp_alloc
 .text.tcp_new  0x0000000000006b98       0x10 E:\VSCode\ArduinoProjects\Datasheets\CH32\CH32V307\CH32V307_EVT\Examples\ETH\NetLib\libwchnet.a(tcp.o)
                0x0000000000006b98                tcp_new
 .text.tcp_eff_send_mss
                0x0000000000006ba8       0x2e E:\VSCode\ArduinoProjects\Datasheets\CH32\CH32V307\CH32V307_EVT\Examples\ETH\NetLib\libwchnet.a(tcp.o)
                0x0000000000006ba8                tcp_eff_send_mss
 .text.tcp_connect
                0x0000000000006bd6       0xe8 E:\VSCode\ArduinoProjects\Datasheets\CH32\CH32V307\CH32V307_EVT\Examples\ETH\NetLib\libwchnet.a(tcp.o)
                0x0000000000006bd6                tcp_connect
 .text.RemoveTimeWaiTCP
                0x0000000000006cbe       0x32 E:\VSCode\ArduinoProjects\Datasheets\CH32\CH32V307\CH32V307_EVT\Examples\ETH\NetLib\libwchnet.a(tcp.o)
                0x0000000000006cbe                RemoveTimeWaiTCP
 .text.tcp_oos_insert_segment
                0x0000000000006cf0       0xce E:\VSCode\ArduinoProjects\Datasheets\CH32\CH32V307\CH32V307_EVT\Examples\ETH\NetLib\libwchnet.a(tcp_in.o)
 .text.tcp_receive
                0x0000000000006dbe      0x8f0 E:\VSCode\ArduinoProjects\Datasheets\CH32\CH32V307\CH32V307_EVT\Examples\ETH\NetLib\libwchnet.a(tcp_in.o)
 .text.tcp_parseopt.isra.0
                0x00000000000076ae       0xa6 E:\VSCode\ArduinoProjects\Datasheets\CH32\CH32V307\CH32V307_EVT\Examples\ETH\NetLib\libwchnet.a(tcp_in.o)
 .text.tcp_input
                0x0000000000007754      0x9d4 E:\VSCode\ArduinoProjects\Datasheets\CH32\CH32V307\CH32V307_EVT\Examples\ETH\NetLib\libwchnet.a(tcp_in.o)
                0x0000000000007754                tcp_input
 .text.tcp_output_set_header.isra.0.constprop.1
                0x0000000000008128       0xd4 E:\VSCode\ArduinoProjects\Datasheets\CH32\CH32V307\CH32V307_EVT\Examples\ETH\NetLib\libwchnet.a(tcp_out.o)
 .text.tcp_enqueue
                0x00000000000081fc      0x448 E:\VSCode\ArduinoProjects\Datasheets\CH32\CH32V307\CH32V307_EVT\Examples\ETH\NetLib\libwchnet.a(tcp_out.o)
                0x00000000000081fc                tcp_enqueue
 .text.tcp_send_ctrl
                0x0000000000008644       0x16 E:\VSCode\ArduinoProjects\Datasheets\CH32\CH32V307\CH32V307_EVT\Examples\ETH\NetLib\libwchnet.a(tcp_out.o)
                0x0000000000008644                tcp_send_ctrl
 .text.tcp_write
                0x000000000000865a       0x30 E:\VSCode\ArduinoProjects\Datasheets\CH32\CH32V307\CH32V307_EVT\Examples\ETH\NetLib\libwchnet.a(tcp_out.o)
                0x000000000000865a                tcp_write
 .text.tcp_send_empty_ack
                0x000000000000868a       0x74 E:\VSCode\ArduinoProjects\Datasheets\CH32\CH32V307\CH32V307_EVT\Examples\ETH\NetLib\libwchnet.a(tcp_out.o)
                0x000000000000868a                tcp_send_empty_ack
 .text.tcp_output
                0x00000000000086fe      0x374 E:\VSCode\ArduinoProjects\Datasheets\CH32\CH32V307\CH32V307_EVT\Examples\ETH\NetLib\libwchnet.a(tcp_out.o)
                0x00000000000086fe                tcp_output
 .text.tcp_rst  0x0000000000008a72      0x108 E:\VSCode\ArduinoProjects\Datasheets\CH32\CH32V307\CH32V307_EVT\Examples\ETH\NetLib\libwchnet.a(tcp_out.o)
                0x0000000000008a72                tcp_rst
 .text.tcp_rexmit_rto
                0x0000000000008b7a       0x36 E:\VSCode\ArduinoProjects\Datasheets\CH32\CH32V307\CH32V307_EVT\Examples\ETH\NetLib\libwchnet.a(tcp_out.o)
                0x0000000000008b7a                tcp_rexmit_rto
 .text.tcp_rexmit
                0x0000000000008bb0       0x7c E:\VSCode\ArduinoProjects\Datasheets\CH32\CH32V307\CH32V307_EVT\Examples\ETH\NetLib\libwchnet.a(tcp_out.o)
                0x0000000000008bb0                tcp_rexmit
 .text.tcp_rexmit_fast
                0x0000000000008c2c       0x62 E:\VSCode\ArduinoProjects\Datasheets\CH32\CH32V307\CH32V307_EVT\Examples\ETH\NetLib\libwchnet.a(tcp_out.o)
                0x0000000000008c2c                tcp_rexmit_fast
 .text.tcp_keepalive
                0x0000000000008c8e       0x5e E:\VSCode\ArduinoProjects\Datasheets\CH32\CH32V307\CH32V307_EVT\Examples\ETH\NetLib\libwchnet.a(tcp_out.o)
                0x0000000000008c8e                tcp_keepalive
 .text.tcp_zero_window_probe
                0x0000000000008cec       0xd2 E:\VSCode\ArduinoProjects\Datasheets\CH32\CH32V307\CH32V307_EVT\Examples\ETH\NetLib\libwchnet.a(tcp_out.o)
                0x0000000000008cec                tcp_zero_window_probe
 .text.udp_input
                0x0000000000008dbe      0x238 E:\VSCode\ArduinoProjects\Datasheets\CH32\CH32V307\CH32V307_EVT\Examples\ETH\NetLib\libwchnet.a(udp.o)
                0x0000000000008dbe                udp_input
 .text.udp_bind
                0x0000000000008ff6       0x9a E:\VSCode\ArduinoProjects\Datasheets\CH32\CH32V307\CH32V307_EVT\Examples\ETH\NetLib\libwchnet.a(udp.o)
                0x0000000000008ff6                udp_bind
 .text.udp_sendto_if
                0x0000000000009090       0xd6 E:\VSCode\ArduinoProjects\Datasheets\CH32\CH32V307\CH32V307_EVT\Examples\ETH\NetLib\libwchnet.a(udp.o)
                0x0000000000009090                udp_sendto_if
 .text.udp_sendto
                0x0000000000009166       0x2e E:\VSCode\ArduinoProjects\Datasheets\CH32\CH32V307\CH32V307_EVT\Examples\ETH\NetLib\libwchnet.a(udp.o)
                0x0000000000009166                udp_sendto
 .text.udp_send
                0x0000000000009194       0x12 E:\VSCode\ArduinoProjects\Datasheets\CH32\CH32V307\CH32V307_EVT\Examples\ETH\NetLib\libwchnet.a(udp.o)
                0x0000000000009194                udp_send
 .text.udp_connect
                0x00000000000091a6       0x7e E:\VSCode\ArduinoProjects\Datasheets\CH32\CH32V307\CH32V307_EVT\Examples\ETH\NetLib\libwchnet.a(udp.o)
                0x00000000000091a6                udp_connect
 .text.udp_recv
                0x0000000000009224        0x6 E:\VSCode\ArduinoProjects\Datasheets\CH32\CH32V307\CH32V307_EVT\Examples\ETH\NetLib\libwchnet.a(udp.o)
                0x0000000000009224                udp_recv
 .text.udp_remove
                0x000000000000922a       0x30 E:\VSCode\ArduinoProjects\Datasheets\CH32\CH32V307\CH32V307_EVT\Examples\ETH\NetLib\libwchnet.a(udp.o)
                0x000000000000922a                udp_remove
 .text.udp_new  0x000000000000925a       0x24 E:\VSCode\ArduinoProjects\Datasheets\CH32\CH32V307\CH32V307_EVT\Examples\ETH\NetLib\libwchnet.a(udp.o)
                0x000000000000925a                udp_new
 .text.icmp_send_response.isra.0
                0x000000000000927e       0x76 E:\VSCode\ArduinoProjects\Datasheets\CH32\CH32V307\CH32V307_EVT\Examples\ETH\NetLib\libwchnet.a(icmp.o)
 .text.icmp_input
                0x00000000000092f4      0x250 E:\VSCode\ArduinoProjects\Datasheets\CH32\CH32V307\CH32V307_EVT\Examples\ETH\NetLib\libwchnet.a(icmp.o)
                0x00000000000092f4                icmp_input
 .text.icmp_dest_unreach
                0x0000000000009544       0x14 E:\VSCode\ArduinoProjects\Datasheets\CH32\CH32V307\CH32V307_EVT\Examples\ETH\NetLib\libwchnet.a(icmp.o)
                0x0000000000009544                icmp_dest_unreach
 .text.icmp_time_exceeded
                0x0000000000009558       0x14 E:\VSCode\ArduinoProjects\Datasheets\CH32\CH32V307\CH32V307_EVT\Examples\ETH\NetLib\libwchnet.a(icmp.o)
                0x0000000000009558                icmp_time_exceeded
 .text.lwip_standard_chksum
                0x000000000000956c       0x7e E:\VSCode\ArduinoProjects\Datasheets\CH32\CH32V307\CH32V307_EVT\Examples\ETH\NetLib\libwchnet.a(inet_chksum.o)
 .text.inet_chksum_pseudo
                0x00000000000095ea       0xf8 E:\VSCode\ArduinoProjects\Datasheets\CH32\CH32V307\CH32V307_EVT\Examples\ETH\NetLib\libwchnet.a(inet_chksum.o)
                0x00000000000095ea                inet_chksum_pseudo
 .text.inet_chksum
                0x00000000000096e2       0x14 E:\VSCode\ArduinoProjects\Datasheets\CH32\CH32V307\CH32V307_EVT\Examples\ETH\NetLib\libwchnet.a(inet_chksum.o)
                0x00000000000096e2                inet_chksum
 .text.inet_chksum_pbuf
                0x00000000000096f6       0x6a E:\VSCode\ArduinoProjects\Datasheets\CH32\CH32V307\CH32V307_EVT\Examples\ETH\NetLib\libwchnet.a(inet_chksum.o)
                0x00000000000096f6                inet_chksum_pbuf
 .text.printchar
                0x0000000000009760       0x4a e:/program/mounriver/mounriver_studio/toolchain/risc-v embedded gcc/bin/../lib/gcc/riscv-none-embed/8.2.0/../../../../riscv-none-embed/lib/rv32imacxw/ilp32\libprintf.a(wchprintf.o)
                0x0000000000009760                printchar
 .text.prints   0x00000000000097aa       0xe0 e:/program/mounriver/mounriver_studio/toolchain/risc-v embedded gcc/bin/../lib/gcc/riscv-none-embed/8.2.0/../../../../riscv-none-embed/lib/rv32imacxw/ilp32\libprintf.a(wchprintf.o)
                0x00000000000097aa                prints
 .text.printInt
                0x000000000000988a       0xf2 e:/program/mounriver/mounriver_studio/toolchain/risc-v embedded gcc/bin/../lib/gcc/riscv-none-embed/8.2.0/../../../../riscv-none-embed/lib/rv32imacxw/ilp32\libprintf.a(wchprintf.o)
                0x000000000000988a                printInt
 .text.printLongLongInt
                0x000000000000997c        0x4 e:/program/mounriver/mounriver_studio/toolchain/risc-v embedded gcc/bin/../lib/gcc/riscv-none-embed/8.2.0/../../../../riscv-none-embed/lib/rv32imacxw/ilp32\libprintf.a(wchprintf.o)
                0x000000000000997c                printLongLongInt
 .text.printDouble
                0x0000000000009980        0x4 e:/program/mounriver/mounriver_studio/toolchain/risc-v embedded gcc/bin/../lib/gcc/riscv-none-embed/8.2.0/../../../../riscv-none-embed/lib/rv32imacxw/ilp32\libprintf.a(wchprintf.o)
                0x0000000000009980                printDouble
 .text.print    0x0000000000009984      0x320 e:/program/mounriver/mounriver_studio/toolchain/risc-v embedded gcc/bin/../lib/gcc/riscv-none-embed/8.2.0/../../../../riscv-none-embed/lib/rv32imacxw/ilp32\libprintf.a(wchprintf.o)
                0x0000000000009984                print
 .text.printf   0x0000000000009ca4       0x24 e:/program/mounriver/mounriver_studio/toolchain/risc-v embedded gcc/bin/../lib/gcc/riscv-none-embed/8.2.0/../../../../riscv-none-embed/lib/rv32imacxw/ilp32\libprintf.a(wchprintf.o)
                0x0000000000009ca4                printf
 .text.sprintf  0x0000000000009cc8       0x28 e:/program/mounriver/mounriver_studio/toolchain/risc-v embedded gcc/bin/../lib/gcc/riscv-none-embed/8.2.0/../../../../riscv-none-embed/lib/rv32imacxw/ilp32\libprintf.a(wchprintf.o)
                0x0000000000009cc8                sprintf
 .text.puts     0x0000000000009cf0       0x4a e:/program/mounriver/mounriver_studio/toolchain/risc-v embedded gcc/bin/../lib/gcc/riscv-none-embed/8.2.0/../../../../riscv-none-embed/lib/rv32imacxw/ilp32\libprintf.a(wchprintf.o)
                0x0000000000009cf0                puts
 .text.putchar  0x0000000000009d3a       0x18 e:/program/mounriver/mounriver_studio/toolchain/risc-v embedded gcc/bin/../lib/gcc/riscv-none-embed/8.2.0/../../../../riscv-none-embed/lib/rv32imacxw/ilp32\libprintf.a(wchprintf.o)
                0x0000000000009d3a                putchar
 .text.atoi     0x0000000000009d52        0x6 e:/program/mounriver/mounriver_studio/toolchain/risc-v embedded gcc/bin/../lib/gcc/riscv-none-embed/8.2.0/../../../../riscv-none-embed/lib/rv32imacxw/ilp32\libg_nano.a(lib_a-atoi.o)
                0x0000000000009d52                atoi
 .text.memcpy   0x0000000000009d58       0xb2 e:/program/mounriver/mounriver_studio/toolchain/risc-v embedded gcc/bin/../lib/gcc/riscv-none-embed/8.2.0/../../../../riscv-none-embed/lib/rv32imacxw/ilp32\libg_nano.a(lib_a-memcpy.o)
                0x0000000000009d58                memcpy
 .text.strcpy   0x0000000000009e0a       0x10 e:/program/mounriver/mounriver_studio/toolchain/risc-v embedded gcc/bin/../lib/gcc/riscv-none-embed/8.2.0/../../../../riscv-none-embed/lib/rv32imacxw/ilp32\libg_nano.a(lib_a-strcpy.o)
                0x0000000000009e0a                strcpy
 .text.strlen   0x0000000000009e1a       0x12 e:/program/mounriver/mounriver_studio/toolchain/risc-v embedded gcc/bin/../lib/gcc/riscv-none-embed/8.2.0/../../../../riscv-none-embed/lib/rv32imacxw/ilp32\libg_nano.a(lib_a-strlen.o)
                0x0000000000009e1a                strlen
 .text.strstr   0x0000000000009e2c       0x34 e:/program/mounriver/mounriver_studio/toolchain/risc-v embedded gcc/bin/../lib/gcc/riscv-none-embed/8.2.0/../../../../riscv-none-embed/lib/rv32imacxw/ilp32\libg_nano.a(lib_a-strstr.o)
                0x0000000000009e2c                strstr
 .text.strtok   0x0000000000009e60       0x7c e:/program/mounriver/mounriver_studio/toolchain/risc-v embedded gcc/bin/../lib/gcc/riscv-none-embed/8.2.0/../../../../riscv-none-embed/lib/rv32imacxw/ilp32\libg_nano.a(lib_a-strtok.o)
                0x0000000000009e60                strtok
 .text.__strtok_r
                0x0000000000009edc       0x5c e:/program/mounriver/mounriver_studio/toolchain/risc-v embedded gcc/bin/../lib/gcc/riscv-none-embed/8.2.0/../../../../riscv-none-embed/lib/rv32imacxw/ilp32\libg_nano.a(lib_a-strtok_r.o)
                0x0000000000009edc                __strtok_r
 .text._strtol_l.isra.0
                0x0000000000009f38      0x138 e:/program/mounriver/mounriver_studio/toolchain/risc-v embedded gcc/bin/../lib/gcc/riscv-none-embed/8.2.0/../../../../riscv-none-embed/lib/rv32imacxw/ilp32\libg_nano.a(lib_a-strtol.o)
 .text.strtol   0x000000000000a070       0x1e e:/program/mounriver/mounriver_studio/toolchain/risc-v embedded gcc/bin/../lib/gcc/riscv-none-embed/8.2.0/../../../../riscv-none-embed/lib/rv32imacxw/ilp32\libg_nano.a(lib_a-strtol.o)
                0x000000000000a070                strtol
 .text.__locale_ctype_ptr_l
                0x000000000000a08e        0x6 e:/program/mounriver/mounriver_studio/toolchain/risc-v embedded gcc/bin/../lib/gcc/riscv-none-embed/8.2.0/../../../../riscv-none-embed/lib/rv32imacxw/ilp32\libg_nano.a(lib_a-locale.o)
                0x000000000000a08e                __locale_ctype_ptr_l
 .text.malloc   0x000000000000a094        0xa e:/program/mounriver/mounriver_studio/toolchain/risc-v embedded gcc/bin/../lib/gcc/riscv-none-embed/8.2.0/../../../../riscv-none-embed/lib/rv32imacxw/ilp32\libg_nano.a(lib_a-malloc.o)
                0x000000000000a094                malloc
 .text.__ascii_mbtowc
                0x000000000000a09e       0x32 e:/program/mounriver/mounriver_studio/toolchain/risc-v embedded gcc/bin/../lib/gcc/riscv-none-embed/8.2.0/../../../../riscv-none-embed/lib/rv32imacxw/ilp32\libg_nano.a(lib_a-mbtowc_r.o)
                0x000000000000a09e                __ascii_mbtowc
 .text._malloc_r
                0x000000000000a0d0       0xce e:/program/mounriver/mounriver_studio/toolchain/risc-v embedded gcc/bin/../lib/gcc/riscv-none-embed/8.2.0/../../../../riscv-none-embed/lib/rv32imacxw/ilp32\libg_nano.a(lib_a-nano-mallocr.o)
                0x000000000000a0d0                _malloc_r
 .text._sbrk_r  0x000000000000a19e       0x32 e:/program/mounriver/mounriver_studio/toolchain/risc-v embedded gcc/bin/../lib/gcc/riscv-none-embed/8.2.0/../../../../riscv-none-embed/lib/rv32imacxw/ilp32\libg_nano.a(lib_a-sbrkr.o)
                0x000000000000a19e                _sbrk_r
 .text.__ascii_wctomb
                0x000000000000a1d0       0x1e e:/program/mounriver/mounriver_studio/toolchain/risc-v embedded gcc/bin/../lib/gcc/riscv-none-embed/8.2.0/../../../../riscv-none-embed/lib/rv32imacxw/ilp32\libg_nano.a(lib_a-wctomb_r.o)
                0x000000000000a1d0                __ascii_wctomb
 .text.__malloc_lock
                0x000000000000a1ee        0x2 e:/program/mounriver/mounriver_studio/toolchain/risc-v embedded gcc/bin/../lib/gcc/riscv-none-embed/8.2.0/../../../../riscv-none-embed/lib/rv32imacxw/ilp32\libg_nano.a(lib_a-mlock.o)
                0x000000000000a1ee                __malloc_lock
 .text.__malloc_unlock
                0x000000000000a1f0        0x2 e:/program/mounriver/mounriver_studio/toolchain/risc-v embedded gcc/bin/../lib/gcc/riscv-none-embed/8.2.0/../../../../riscv-none-embed/lib/rv32imacxw/ilp32\libg_nano.a(lib_a-mlock.o)
                0x000000000000a1f0                __malloc_unlock
 *(.rodata)
 *(.rodata*)
 *fill*         0x000000000000a1f2        0x2 
 .rodata.HardFault_Handler.str1.4
                0x000000000000a1f4       0x42 ./User/ch32v30x_it.o
 *fill*         0x000000000000a236        0x2 
 .rodata.WCHNET_CreateCfgSocket.str1.4
                0x000000000000a238       0x39 ./User/main.o
 *fill*         0x000000000000a271        0x3 
 .rodata.WCHNET_CreateTcpSocketListen.str1.4
                0x000000000000a274       0x17 ./User/main.o
 *fill*         0x000000000000a28b        0x1 
 .rodata.WCHNET_HandleGlobalInt.str1.4
                0x000000000000a28c       0x3e ./User/main.o
 *fill*         0x000000000000a2ca        0x2 
 .rodata.WCHNET_HandleSockInt.str1.4
                0x000000000000a2cc       0x5d ./User/main.o
 *fill*         0x000000000000a329        0x3 
 .rodata.mStopIfError.str1.4
                0x000000000000a32c        0xe ./User/main.o
 *fill*         0x000000000000a33a        0x2 
 .rodata.main.str1.4
                0x000000000000a33c       0x7c ./User/main.o
 .rodata.MemNum
                0x000000000000a3b8       0x10 ./NetLib/eth_driver.o
                0x000000000000a3b8                MemNum
 .rodata.MemSize
                0x000000000000a3c8       0x10 ./NetLib/eth_driver.o
                0x000000000000a3c8                MemSize
 .rodata.GetURLName.str1.4
                0x000000000000a3d8        0x2 ./HTTP/HTTPS.o
 *fill*         0x000000000000a3da        0x2 
 .rodata.Html_about
                0x000000000000a3dc      0xa66 ./HTTP/HTTPS.o
                0x000000000000a3dc                Html_about
 *fill*         0x000000000000ae42        0x2 
 .rodata.Html_basic
                0x000000000000ae44      0x46a ./HTTP/HTTPS.o
                0x000000000000ae44                Html_basic
 *fill*         0x000000000000b2ae        0x2 
 .rodata.Html_login
                0x000000000000b2b0      0x64c ./HTTP/HTTPS.o
                0x000000000000b2b0                Html_login
 .rodata.Html_logo
                0x000000000000b8fc      0x5e1 ./HTTP/HTTPS.o
                0x000000000000b8fc                Html_logo
 *fill*         0x000000000000bedd        0x3 
 .rodata.Html_main
                0x000000000000bee0      0xc27 ./HTTP/HTTPS.o
                0x000000000000bee0                Html_main
 *fill*         0x000000000000cb07        0x1 
 .rodata.Html_png1
                0x000000000000cb08      0xca3 ./HTTP/HTTPS.o
                0x000000000000cb08                Html_png1
 *fill*         0x000000000000d7ab        0x1 
 .rodata.Html_png2
                0x000000000000d7ac      0x866 ./HTTP/HTTPS.o
                0x000000000000d7ac                Html_png2
 *fill*         0x000000000000e012        0x2 
 .rodata.Html_png3
                0x000000000000e014      0x99a ./HTTP/HTTPS.o
                0x000000000000e014                Html_png3
 *fill*         0x000000000000e9ae        0x2 
 .rodata.Html_png4
                0x000000000000e9b0     0x10ce ./HTTP/HTTPS.o
                0x000000000000e9b0                Html_png4
 *fill*         0x000000000000fa7e        0x2 
 .rodata.Html_port
                0x000000000000fa80      0x522 ./HTTP/HTTPS.o
                0x000000000000fa80                Html_port
 *fill*         0x000000000000ffa2        0x2 
 .rodata.Html_style
                0x000000000000ffa4      0x6bc ./HTTP/HTTPS.o
                0x000000000000ffa4                Html_style
 .rodata.Html_success
                0x0000000000010660      0x1cc ./HTTP/HTTPS.o
                0x0000000000010660                Html_success
 .rodata.Html_user
                0x000000000001082c      0x35d ./HTTP/HTTPS.o
                0x000000000001082c                Html_user
 *fill*         0x0000000000010b89        0x3 
 .rodata.Html_weixin
                0x0000000000010b8c     0x1240 ./HTTP/HTTPS.o
                0x0000000000010b8c                Html_weixin
 .rodata.Init_Para_Tab.str1.4
                0x0000000000011dcc       0xa3 ./HTTP/HTTPS.o
 *fill*         0x0000000000011e6f        0x1 
 .rodata.MakeHttpResponse.str1.4
                0x0000000000011e70       0xb9 ./HTTP/HTTPS.o
 *fill*         0x0000000000011f29        0x3 
 .rodata.ParseHttpRequest.str1.4
                0x0000000000011f2c       0x19 ./HTTP/HTTPS.o
 *fill*         0x0000000000011f45        0x3 
 .rodata.ParseURLType.str1.4
                0x0000000000011f48       0x1d ./HTTP/HTTPS.o
 *fill*         0x0000000000011f65        0x3 
 .rodata.Refresh_Basic.str1.4
                0x0000000000011f68       0x24 ./HTTP/HTTPS.o
 .rodata.Refresh_Login.str1.4
                0x0000000000011f8c       0x10 ./HTTP/HTTPS.o
 .rodata.Refresh_Port.str1.4
                0x0000000000011f9c       0x44 ./HTTP/HTTPS.o
 .rodata.Web_Server.str1.4
                0x0000000000011fe0       0x7e ./HTTP/HTTPS.o
 *fill*         0x000000000001205e        0x2 
 .rodata.ErrTable
                0x0000000000012060       0x10 E:\VSCode\ArduinoProjects\Datasheets\CH32\CH32V307\CH32V307_EVT\Examples\ETH\NetLib\libwchnet.a(socket.o)
                0x0000000000012060                ErrTable
 .rodata.tcp_close
                0x0000000000012070       0x20 E:\VSCode\ArduinoProjects\Datasheets\CH32\CH32V307\CH32V307_EVT\Examples\ETH\NetLib\libwchnet.a(tcp.o)
 .rodata.tcp_backoff
                0x0000000000012090        0xd E:\VSCode\ArduinoProjects\Datasheets\CH32\CH32V307\CH32V307_EVT\Examples\ETH\NetLib\libwchnet.a(tcp.o)
                0x0000000000012090                tcp_backoff
 *fill*         0x000000000001209d        0x3 
 .rodata.tcp_input
                0x00000000000120a0       0x20 E:\VSCode\ArduinoProjects\Datasheets\CH32\CH32V307\CH32V307_EVT\Examples\ETH\NetLib\libwchnet.a(tcp_in.o)
 .rodata.print.str1.4
                0x00000000000120c0        0x7 e:/program/mounriver/mounriver_studio/toolchain/risc-v embedded gcc/bin/../lib/gcc/riscv-none-embed/8.2.0/../../../../riscv-none-embed/lib/rv32imacxw/ilp32\libprintf.a(wchprintf.o)
 *fill*         0x00000000000120c7        0x1 
 .rodata._setlocale_r.str1.4
                0x00000000000120c8        0xc e:/program/mounriver/mounriver_studio/toolchain/risc-v embedded gcc/bin/../lib/gcc/riscv-none-embed/8.2.0/../../../../riscv-none-embed/lib/rv32imacxw/ilp32\libg_nano.a(lib_a-locale.o)
                                          0xd (size before relaxing)
 .rodata.str1.4
                0x00000000000120d4        0x2 e:/program/mounriver/mounriver_studio/toolchain/risc-v embedded gcc/bin/../lib/gcc/riscv-none-embed/8.2.0/../../../../riscv-none-embed/lib/rv32imacxw/ilp32\libg_nano.a(lib_a-locale.o)
 .rodata._ctype_
                0x00000000000120d4      0x101 e:/program/mounriver/mounriver_studio/toolchain/risc-v embedded gcc/bin/../lib/gcc/riscv-none-embed/8.2.0/../../../../riscv-none-embed/lib/rv32imacxw/ilp32\libg_nano.a(lib_a-ctype_.o)
                0x00000000000120d4                _ctype_
 *(.gnu.linkonce.t.*)
                0x00000000000121d8                . = ALIGN (0x4)
 *fill*         0x00000000000121d5        0x3 

.rela.dyn       0x00000000000121d8        0x0
 .rela.text.HardFault_Handler
                0x00000000000121d8        0x0 ./User/ch32v30x_it.o
 .rela.text.mStopIfError
                0x00000000000121d8        0x0 ./User/ch32v30x_it.o
 .rela.text.WCHNET_CreateTcpSocketListen
                0x00000000000121d8        0x0 ./User/ch32v30x_it.o
 .rela.text.WCHNET_CreateCfgSocket
                0x00000000000121d8        0x0 ./User/ch32v30x_it.o
 .rela.text.WCHNET_HandleSockInt
                0x00000000000121d8        0x0 ./User/ch32v30x_it.o
 .rela.text.startup.main
                0x00000000000121d8        0x0 ./User/ch32v30x_it.o
 .rela.init     0x00000000000121d8        0x0 ./User/ch32v30x_it.o
 .rela.vector   0x00000000000121d8        0x0 ./User/ch32v30x_it.o
 .rela.text.handle_reset
                0x00000000000121d8        0x0 ./User/ch32v30x_it.o
 .rela.text.Refresh_Port
                0x00000000000121d8        0x0 ./User/ch32v30x_it.o
 .rela.text.Init_Para_Tab
                0x00000000000121d8        0x0 ./User/ch32v30x_it.o
 .rela.text._sbrk
                0x00000000000121d8        0x0 ./User/ch32v30x_it.o
 .rela.sdata.curbrk.5535
                0x00000000000121d8        0x0 ./User/ch32v30x_it.o
 .rela.text.prints
                0x00000000000121d8        0x0 ./User/ch32v30x_it.o
 .rela.text.printInt
                0x00000000000121d8        0x0 ./User/ch32v30x_it.o
 .rela.text.print
                0x00000000000121d8        0x0 ./User/ch32v30x_it.o
 .rela.text.printf
                0x00000000000121d8        0x0 ./User/ch32v30x_it.o
 .rela.text.sprintf
                0x00000000000121d8        0x0 ./User/ch32v30x_it.o
 .rela.data.impure_data
                0x00000000000121d8        0x0 ./User/ch32v30x_it.o
 .rela.text._sbrk_r
                0x00000000000121d8        0x0 ./User/ch32v30x_it.o

.fini           0x00000000000121d8        0x0
 *(SORT_NONE(.fini))
                0x00000000000121d8                . = ALIGN (0x4)
                [!provide]                        PROVIDE (_etext = .)
                [!provide]                        PROVIDE (_eitcm = .)

.preinit_array  0x00000000000121d8        0x0
                [!provide]                        PROVIDE (__preinit_array_start = .)
 *(.preinit_array)
                [!provide]                        PROVIDE (__preinit_array_end = .)

.init_array     0x00000000000121d8        0x0
                [!provide]                        PROVIDE (__init_array_start = .)
 *(SORT_BY_INIT_PRIORITY(.init_array.*) SORT_BY_INIT_PRIORITY(.ctors.*))
 *(.init_array EXCLUDE_FILE(*crtend?.o *crtend.o *crtbegin?.o *crtbegin.o) .ctors)
                [!provide]                        PROVIDE (__init_array_end = .)

.fini_array     0x00000000000121d8        0x0
                [!provide]                        PROVIDE (__fini_array_start = .)
 *(SORT_BY_INIT_PRIORITY(.fini_array.*) SORT_BY_INIT_PRIORITY(.dtors.*))
 *(.fini_array EXCLUDE_FILE(*crtend?.o *crtend.o *crtbegin?.o *crtbegin.o) .dtors)
                [!provide]                        PROVIDE (__fini_array_end = .)

.ctors
 *crtbegin.o(.ctors)
 *crtbegin?.o(.ctors)
 *(EXCLUDE_FILE(*crtend?.o *crtend.o) .ctors)
 *(SORT_BY_NAME(.ctors.*))
 *(.ctors)

.dtors
 *crtbegin.o(.dtors)
 *crtbegin?.o(.dtors)
 *(EXCLUDE_FILE(*crtend?.o *crtend.o) .dtors)
 *(SORT_BY_NAME(.dtors.*))
 *(.dtors)

.dalign         0x0000000020000000        0x0 load address 0x00000000000121d8
                0x0000000020000000                . = ALIGN (0x4)
                0x0000000020000000                PROVIDE (_data_vma = .)

.dlalign        0x00000000000121d8        0x0
                0x00000000000121d8                . = ALIGN (0x4)
                0x00000000000121d8                PROVIDE (_data_lma = .)

.data           0x0000000020000000      0x2c0 load address 0x00000000000121d8
 *(.gnu.linkonce.r.*)
 *(.data .data.*)
 .data.AHBPrescTable
                0x0000000020000000       0x10 ./User/system_ch32v30x.o
                0x0000000020000000                AHBPrescTable
 .data.APBAHBPrescTable
                0x0000000020000010       0x10 ./Peripheral/src/ch32v30x_rcc.o
 .data.Basic_Default
                0x0000000020000020       0x28 ./HTTP/HTTPS.o
                0x0000000020000020                Basic_Default
 .data.Login_Default
                0x0000000020000048       0x28 ./HTTP/HTTPS.o
                0x0000000020000048                Login_Default
 .data.Port_Default
                0x0000000020000070       0x28 ./HTTP/HTTPS.o
                0x0000000020000070                Port_Default
 .data.impure_data
                0x0000000020000098       0x60 e:/program/mounriver/mounriver_studio/toolchain/risc-v embedded gcc/bin/../lib/gcc/riscv-none-embed/8.2.0/../../../../riscv-none-embed/lib/rv32imacxw/ilp32\libg_nano.a(lib_a-impure.o)
 .data.__global_locale
                0x00000000200000f8      0x16c e:/program/mounriver/mounriver_studio/toolchain/risc-v embedded gcc/bin/../lib/gcc/riscv-none-embed/8.2.0/../../../../riscv-none-embed/lib/rv32imacxw/ilp32\libg_nano.a(lib_a-locale.o)
                0x00000000200000f8                __global_locale
 *(.gnu.linkonce.d.*)
                0x0000000020000268                . = ALIGN (0x8)
 *fill*         0x0000000020000264        0x4 
                0x0000000020000a68                PROVIDE (__global_pointer$ = (. + 0x800))
 *(.sdata .sdata.*)
 .sdata.SystemCoreClock
                0x0000000020000268        0x4 ./User/system_ch32v30x.o
                0x0000000020000268                SystemCoreClock
 .sdata.ADCPrescTable
                0x000000002000026c        0x4 ./Peripheral/src/ch32v30x_rcc.o
 .sdata.phyPN   0x0000000020000270        0x1 ./NetLib/eth_driver.o
                0x0000000020000270                phyPN
 *fill*         0x0000000020000271        0x3 
 .sdata.Basic_CfgBuf
                0x0000000020000274        0x4 ./HTTP/HTTPS.o
                0x0000000020000274                Basic_CfgBuf
 .sdata.Login_CfgBuf
                0x0000000020000278        0x4 ./HTTP/HTTPS.o
                0x0000000020000278                Login_CfgBuf
 .sdata.Port_CfgBuf
                0x000000002000027c        0x4 ./HTTP/HTTPS.o
                0x000000002000027c                Port_CfgBuf
 .sdata.curbrk.5535
                0x0000000020000280        0x4 ./Debug/debug.o
 .sdata.arp_table
                0x0000000020000284        0x4 E:\VSCode\ArduinoProjects\Datasheets\CH32\CH32V307\CH32V307_EVT\Examples\ETH\NetLib\libwchnet.a(etharp.o)
                0x0000000020000284                arp_table
 .sdata.xid.3253
                0x0000000020000288        0x4 E:\VSCode\ArduinoProjects\Datasheets\CH32\CH32V307\CH32V307_EVT\Examples\ETH\NetLib\libwchnet.a(dhcp.o)
 .sdata.memp_num
                0x000000002000028c        0x4 E:\VSCode\ArduinoProjects\Datasheets\CH32\CH32V307\CH32V307_EVT\Examples\ETH\NetLib\libwchnet.a(memp.o)
                0x000000002000028c                memp_num
 .sdata.memp_sizes
                0x0000000020000290        0x4 E:\VSCode\ArduinoProjects\Datasheets\CH32\CH32V307\CH32V307_EVT\Examples\ETH\NetLib\libwchnet.a(memp.o)
                0x0000000020000290                memp_sizes
 .sdata.iss.3173
                0x0000000020000294        0x4 E:\VSCode\ArduinoProjects\Datasheets\CH32\CH32V307\CH32V307_EVT\Examples\ETH\NetLib\libwchnet.a(tcp.o)
 .sdata.port.3015
                0x0000000020000298        0x2 E:\VSCode\ArduinoProjects\Datasheets\CH32\CH32V307\CH32V307_EVT\Examples\ETH\NetLib\libwchnet.a(tcp.o)
 *fill*         0x000000002000029a        0x2 
 .sdata._impure_ptr
                0x000000002000029c        0x4 e:/program/mounriver/mounriver_studio/toolchain/risc-v embedded gcc/bin/../lib/gcc/riscv-none-embed/8.2.0/../../../../riscv-none-embed/lib/rv32imacxw/ilp32\libg_nano.a(lib_a-impure.o)
                0x000000002000029c                _impure_ptr
 *(.sdata2.*)
 .sdata2.ethbroadcast
                0x00000000200002a0        0x6 E:\VSCode\ArduinoProjects\Datasheets\CH32\CH32V307\CH32V307_EVT\Examples\ETH\NetLib\libwchnet.a(etharp.o)
                0x00000000200002a0                ethbroadcast
 *fill*         0x00000000200002a6        0x2 
 .sdata2.ethzero
                0x00000000200002a8        0x6 E:\VSCode\ArduinoProjects\Datasheets\CH32\CH32V307\CH32V307_EVT\Examples\ETH\NetLib\libwchnet.a(etharp.o)
                0x00000000200002a8                ethzero
 *fill*         0x00000000200002ae        0x2 
 .sdata2.ip_addr_any
                0x00000000200002b0        0x4 E:\VSCode\ArduinoProjects\Datasheets\CH32\CH32V307\CH32V307_EVT\Examples\ETH\NetLib\libwchnet.a(ip_addr.o)
                0x00000000200002b0                ip_addr_any
 .sdata2.ip_addr_broadcast
                0x00000000200002b4        0x4 E:\VSCode\ArduinoProjects\Datasheets\CH32\CH32V307\CH32V307_EVT\Examples\ETH\NetLib\libwchnet.a(ip_addr.o)
                0x00000000200002b4                ip_addr_broadcast
 .sdata2.tcp_persist_backoff
                0x00000000200002b8        0x7 E:\VSCode\ArduinoProjects\Datasheets\CH32\CH32V307\CH32V307_EVT\Examples\ETH\NetLib\libwchnet.a(tcp.o)
                0x00000000200002b8                tcp_persist_backoff
 *(.gnu.linkonce.s.*)
                0x00000000200002c0                . = ALIGN (0x8)
 *fill*         0x00000000200002bf        0x1 
 *(.srodata.cst16)
 *(.srodata.cst8)
 *(.srodata.cst4)
 *(.srodata.cst2)
 *(.srodata .srodata.*)
                0x00000000200002c0                . = ALIGN (0x4)
                0x00000000200002c0                PROVIDE (_edata = .)

.bss            0x00000000200002c0     0xd8b8 load address 0x0000000000012498
                0x00000000200002c0                . = ALIGN (0x4)
                0x00000000200002c0                PROVIDE (_sbss = .)
 *(.sbss*)
 .sbss.DESPORT  0x00000000200002c0        0x2 ./User/main.o
                0x00000000200002c0                DESPORT
 .sbss.DealDataFlag
                0x00000000200002c2        0x1 ./User/main.o
                0x00000000200002c2                DealDataFlag
 *fill*         0x00000000200002c3        0x1 
 .sbss.GWIPAddr
                0x00000000200002c4        0x4 ./User/main.o
                0x00000000200002c4                GWIPAddr
 .sbss.IPAddr   0x00000000200002c8        0x4 ./User/main.o
                0x00000000200002c8                IPAddr
 .sbss.IPMask   0x00000000200002cc        0x4 ./User/main.o
                0x00000000200002cc                IPMask
 .sbss.MACAddr  0x00000000200002d0        0x6 ./User/main.o
                0x00000000200002d0                MACAddr
 .sbss.SRCPORT  0x00000000200002d6        0x2 ./User/main.o
                0x00000000200002d6                SRCPORT
 .sbss.SocketId
                0x00000000200002d8        0x1 ./User/main.o
                0x00000000200002d8                SocketId
 .sbss.SocketIdForListen
                0x00000000200002d9        0x1 ./User/main.o
                0x00000000200002d9                SocketIdForListen
 *fill*         0x00000000200002da        0x2 
 .sbss.DMARxDescToGet
                0x00000000200002dc        0x4 ./Peripheral/src/ch32v30x_eth.o
                0x00000000200002dc                DMARxDescToGet
 .sbss.DMATxDescToSet
                0x00000000200002e0        0x4 ./Peripheral/src/ch32v30x_eth.o
                0x00000000200002e0                DMATxDescToSet
 .sbss.ChipVerNum
                0x00000000200002e4        0x1 ./NetLib/eth_driver.o
                0x00000000200002e4                ChipVerNum
 *fill*         0x00000000200002e5        0x3 
 .sbss.LocalTime
                0x00000000200002e8        0x4 ./NetLib/eth_driver.o
                0x00000000200002e8                LocalTime
 .sbss.gPHYAddress
                0x00000000200002ec        0x2 ./NetLib/eth_driver.o
                0x00000000200002ec                gPHYAddress
 *fill*         0x00000000200002ee        0x2 
 .sbss.pDMARxSet
                0x00000000200002f0        0x4 ./NetLib/eth_driver.o
                0x00000000200002f0                pDMARxSet
 .sbss.pDMATxSet
                0x00000000200002f4        0x4 ./NetLib/eth_driver.o
                0x00000000200002f4                pDMATxSet
 .sbss.phyLinkCnt
                0x00000000200002f8        0x1 ./NetLib/eth_driver.o
                0x00000000200002f8                phyLinkCnt
 .sbss.phyLinkStatus
                0x00000000200002f9        0x1 ./NetLib/eth_driver.o
                0x00000000200002f9                phyLinkStatus
 *fill*         0x00000000200002fa        0x2 
 .sbss.phyLinkTime
                0x00000000200002fc        0x4 ./NetLib/eth_driver.o
                0x00000000200002fc                phyLinkTime
 .sbss.phyRetryCnt
                0x0000000020000300        0x1 ./NetLib/eth_driver.o
                0x0000000020000300                phyRetryCnt
 .sbss.phyStatus
                0x0000000020000301        0x1 ./NetLib/eth_driver.o
                0x0000000020000301                phyStatus
 .sbss.phySucCnt
                0x0000000020000302        0x1 ./NetLib/eth_driver.o
                0x0000000020000302                phySucCnt
 *fill*         0x0000000020000303        0x1 
 .sbss.http_request
                0x0000000020000304        0x4 ./HTTP/HTTPS.o
                0x0000000020000304                http_request
 .sbss.name     0x0000000020000308        0x4 ./HTTP/HTTPS.o
                0x0000000020000308                name
 .sbss.socket   0x000000002000030c        0x1 ./HTTP/HTTPS.o
                0x000000002000030c                socket
 *fill*         0x000000002000030d        0x1 
 .sbss.p_ms     0x000000002000030e        0x2 ./Debug/debug.o
 .sbss.p_us     0x0000000020000310        0x1 ./Debug/debug.o
 *fill*         0x0000000020000311        0x3 
 .sbss.ARPTimer
                0x0000000020000314        0x4 E:\VSCode\ArduinoProjects\Datasheets\CH32\CH32V307\CH32V307_EVT\Examples\ETH\NetLib\libwchnet.a(eth_api.o)
                0x0000000020000314                ARPTimer
 .sbss.ArpCheckTime
                0x0000000020000318        0x4 E:\VSCode\ArduinoProjects\Datasheets\CH32\CH32V307\CH32V307_EVT\Examples\ETH\NetLib\libwchnet.a(eth_api.o)
                0x0000000020000318                ArpCheckTime
 .sbss.DHCPcoarseTimer
                0x000000002000031c        0x4 E:\VSCode\ArduinoProjects\Datasheets\CH32\CH32V307\CH32V307_EVT\Examples\ETH\NetLib\libwchnet.a(eth_api.o)
                0x000000002000031c                DHCPcoarseTimer
 .sbss.DHCPfineTimer
                0x0000000020000320        0x4 E:\VSCode\ArduinoProjects\Datasheets\CH32\CH32V307\CH32V307_EVT\Examples\ETH\NetLib\libwchnet.a(eth_api.o)
                0x0000000020000320                DHCPfineTimer
 .sbss.DNSTimer
                0x0000000020000324        0x4 E:\VSCode\ArduinoProjects\Datasheets\CH32\CH32V307\CH32V307_EVT\Examples\ETH\NetLib\libwchnet.a(eth_api.o)
                0x0000000020000324                DNSTimer
 .sbss.IPFragTimer
                0x0000000020000328        0x4 E:\VSCode\ArduinoProjects\Datasheets\CH32\CH32V307\CH32V307_EVT\Examples\ETH\NetLib\libwchnet.a(eth_api.o)
                0x0000000020000328                IPFragTimer
 .sbss.TCPTimer
                0x000000002000032c        0x4 E:\VSCode\ArduinoProjects\Datasheets\CH32\CH32V307\CH32V307_EVT\Examples\ETH\NetLib\libwchnet.a(eth_api.o)
                0x000000002000032c                TCPTimer
 .sbss.TxTimer  0x0000000020000330        0x4 E:\VSCode\ArduinoProjects\Datasheets\CH32\CH32V307\CH32V307_EVT\Examples\ETH\NetLib\libwchnet.a(eth_api.o)
                0x0000000020000330                TxTimer
 .sbss.phydatatime
                0x0000000020000334        0x4 E:\VSCode\ArduinoProjects\Datasheets\CH32\CH32V307\CH32V307_EVT\Examples\ETH\NetLib\libwchnet.a(eth_api.o)
                0x0000000020000334                phydatatime
 .sbss.SockNumber
                0x0000000020000338        0x1 E:\VSCode\ArduinoProjects\Datasheets\CH32\CH32V307\CH32V307_EVT\Examples\ETH\NetLib\libwchnet.a(socket.o)
                0x0000000020000338                SockNumber
 .sbss.phydata  0x0000000020000339        0x1 E:\VSCode\ArduinoProjects\Datasheets\CH32\CH32V307\CH32V307_EVT\Examples\ETH\NetLib\libwchnet.a(socket.o)
                0x0000000020000339                phydata
 *fill*         0x000000002000033a        0x2 
 .sbss.tcpSendDataTime
                0x000000002000033c        0x4 E:\VSCode\ArduinoProjects\Datasheets\CH32\CH32V307\CH32V307_EVT\Examples\ETH\NetLib\libwchnet.a(socket.o)
                0x000000002000033c                tcpSendDataTime
 .sbss.etharp_cached_entry
                0x0000000020000340        0x1 E:\VSCode\ArduinoProjects\Datasheets\CH32\CH32V307\CH32V307_EVT\Examples\ETH\NetLib\libwchnet.a(etharp.o)
 *fill*         0x0000000020000341        0x3 
 .sbss.frame    0x0000000020000344        0x8 E:\VSCode\ArduinoProjects\Datasheets\CH32\CH32V307\CH32V307_EVT\Examples\ETH\NetLib\libwchnet.a(ethernetif.o)
                0x0000000020000344                frame
 .sbss.ip_id.2933
                0x000000002000034c        0x2 E:\VSCode\ArduinoProjects\Datasheets\CH32\CH32V307\CH32V307_EVT\Examples\ETH\NetLib\libwchnet.a(ip.o)
 .sbss.ip_reass_pbufcount
                0x000000002000034e        0x2 E:\VSCode\ArduinoProjects\Datasheets\CH32\CH32V307\CH32V307_EVT\Examples\ETH\NetLib\libwchnet.a(ip_frag.o)
 .sbss.reassdatagrams
                0x0000000020000350        0x4 E:\VSCode\ArduinoProjects\Datasheets\CH32\CH32V307\CH32V307_EVT\Examples\ETH\NetLib\libwchnet.a(ip_frag.o)
 .sbss.lfree    0x0000000020000354        0x4 E:\VSCode\ArduinoProjects\Datasheets\CH32\CH32V307\CH32V307_EVT\Examples\ETH\NetLib\libwchnet.a(mem.o)
 .sbss.ram      0x0000000020000358        0x4 E:\VSCode\ArduinoProjects\Datasheets\CH32\CH32V307\CH32V307_EVT\Examples\ETH\NetLib\libwchnet.a(mem.o)
 .sbss.ram_end  0x000000002000035c        0x4 E:\VSCode\ArduinoProjects\Datasheets\CH32\CH32V307\CH32V307_EVT\Examples\ETH\NetLib\libwchnet.a(mem.o)
 .sbss.netif_default
                0x0000000020000360        0x4 E:\VSCode\ArduinoProjects\Datasheets\CH32\CH32V307\CH32V307_EVT\Examples\ETH\NetLib\libwchnet.a(netif.o)
                0x0000000020000360                netif_default
 .sbss.netif_list
                0x0000000020000364        0x4 E:\VSCode\ArduinoProjects\Datasheets\CH32\CH32V307\CH32V307_EVT\Examples\ETH\NetLib\libwchnet.a(netif.o)
                0x0000000020000364                netif_list
 .sbss.netifnum.2468
                0x0000000020000368        0x1 E:\VSCode\ArduinoProjects\Datasheets\CH32\CH32V307\CH32V307_EVT\Examples\ETH\NetLib\libwchnet.a(netif.o)
 *fill*         0x0000000020000369        0x3 
 .sbss.raw_pcbs
                0x000000002000036c        0x4 E:\VSCode\ArduinoProjects\Datasheets\CH32\CH32V307\CH32V307_EVT\Examples\ETH\NetLib\libwchnet.a(raw.o)
 .sbss.tcp_active_pcbs
                0x0000000020000370        0x4 E:\VSCode\ArduinoProjects\Datasheets\CH32\CH32V307\CH32V307_EVT\Examples\ETH\NetLib\libwchnet.a(tcp.o)
                0x0000000020000370                tcp_active_pcbs
 .sbss.tcp_bound_pcbs
                0x0000000020000374        0x4 E:\VSCode\ArduinoProjects\Datasheets\CH32\CH32V307\CH32V307_EVT\Examples\ETH\NetLib\libwchnet.a(tcp.o)
                0x0000000020000374                tcp_bound_pcbs
 .sbss.tcp_listen_pcbs
                0x0000000020000378        0x4 E:\VSCode\ArduinoProjects\Datasheets\CH32\CH32V307\CH32V307_EVT\Examples\ETH\NetLib\libwchnet.a(tcp.o)
                0x0000000020000378                tcp_listen_pcbs
 .sbss.tcp_ticks
                0x000000002000037c        0x4 E:\VSCode\ArduinoProjects\Datasheets\CH32\CH32V307\CH32V307_EVT\Examples\ETH\NetLib\libwchnet.a(tcp.o)
                0x000000002000037c                tcp_ticks
 .sbss.tcp_timer
                0x0000000020000380        0x1 E:\VSCode\ArduinoProjects\Datasheets\CH32\CH32V307\CH32V307_EVT\Examples\ETH\NetLib\libwchnet.a(tcp.o)
 *fill*         0x0000000020000381        0x3 
 .sbss.tcp_tmp_pcb
                0x0000000020000384        0x4 E:\VSCode\ArduinoProjects\Datasheets\CH32\CH32V307\CH32V307_EVT\Examples\ETH\NetLib\libwchnet.a(tcp.o)
                0x0000000020000384                tcp_tmp_pcb
 .sbss.tcp_tw_pcbs
                0x0000000020000388        0x4 E:\VSCode\ArduinoProjects\Datasheets\CH32\CH32V307\CH32V307_EVT\Examples\ETH\NetLib\libwchnet.a(tcp.o)
                0x0000000020000388                tcp_tw_pcbs
 .sbss.ackno    0x000000002000038c        0x4 E:\VSCode\ArduinoProjects\Datasheets\CH32\CH32V307\CH32V307_EVT\Examples\ETH\NetLib\libwchnet.a(tcp_in.o)
 .sbss.flags    0x0000000020000390        0x1 E:\VSCode\ArduinoProjects\Datasheets\CH32\CH32V307\CH32V307_EVT\Examples\ETH\NetLib\libwchnet.a(tcp_in.o)
 *fill*         0x0000000020000391        0x3 
 .sbss.iphdr    0x0000000020000394        0x4 E:\VSCode\ArduinoProjects\Datasheets\CH32\CH32V307\CH32V307_EVT\Examples\ETH\NetLib\libwchnet.a(tcp_in.o)
 .sbss.recv_data
                0x0000000020000398        0x4 E:\VSCode\ArduinoProjects\Datasheets\CH32\CH32V307\CH32V307_EVT\Examples\ETH\NetLib\libwchnet.a(tcp_in.o)
 .sbss.recv_flags
                0x000000002000039c        0x1 E:\VSCode\ArduinoProjects\Datasheets\CH32\CH32V307\CH32V307_EVT\Examples\ETH\NetLib\libwchnet.a(tcp_in.o)
 *fill*         0x000000002000039d        0x3 
 .sbss.seqno    0x00000000200003a0        0x4 E:\VSCode\ArduinoProjects\Datasheets\CH32\CH32V307\CH32V307_EVT\Examples\ETH\NetLib\libwchnet.a(tcp_in.o)
 .sbss.tcp_input_pcb
                0x00000000200003a4        0x4 E:\VSCode\ArduinoProjects\Datasheets\CH32\CH32V307\CH32V307_EVT\Examples\ETH\NetLib\libwchnet.a(tcp_in.o)
                0x00000000200003a4                tcp_input_pcb
 .sbss.tcphdr   0x00000000200003a8        0x4 E:\VSCode\ArduinoProjects\Datasheets\CH32\CH32V307\CH32V307_EVT\Examples\ETH\NetLib\libwchnet.a(tcp_in.o)
 .sbss.tcplen   0x00000000200003ac        0x2 E:\VSCode\ArduinoProjects\Datasheets\CH32\CH32V307\CH32V307_EVT\Examples\ETH\NetLib\libwchnet.a(tcp_in.o)
 *fill*         0x00000000200003ae        0x2 
 .sbss.udp_pcbs
                0x00000000200003b0        0x4 E:\VSCode\ArduinoProjects\Datasheets\CH32\CH32V307\CH32V307_EVT\Examples\ETH\NetLib\libwchnet.a(udp.o)
                0x00000000200003b0                udp_pcbs
 .sbss.__malloc_free_list
                0x00000000200003b4        0x4 e:/program/mounriver/mounriver_studio/toolchain/risc-v embedded gcc/bin/../lib/gcc/riscv-none-embed/8.2.0/../../../../riscv-none-embed/lib/rv32imacxw/ilp32\libg_nano.a(lib_a-nano-mallocr.o)
                0x00000000200003b4                __malloc_free_list
 .sbss.__malloc_sbrk_start
                0x00000000200003b8        0x4 e:/program/mounriver/mounriver_studio/toolchain/risc-v embedded gcc/bin/../lib/gcc/riscv-none-embed/8.2.0/../../../../riscv-none-embed/lib/rv32imacxw/ilp32\libg_nano.a(lib_a-nano-mallocr.o)
                0x00000000200003b8                __malloc_sbrk_start
 *(.gnu.linkonce.sb.*)
 *(.bss*)
 .bss.RecvBuffer
                0x00000000200003bc      0x640 ./User/main.o
                0x00000000200003bc                RecvBuffer
 .bss.SocketRecvBuf
                0x00000000200009fc     0x2bc0 ./User/main.o
                0x00000000200009fc                SocketRecvBuf
 .bss.DMARxDscrTab
                0x00000000200035bc       0x40 ./NetLib/eth_driver.o
                0x00000000200035bc                DMARxDscrTab
 .bss.DMATxDscrTab
                0x00000000200035fc       0x20 ./NetLib/eth_driver.o
                0x00000000200035fc                DMATxDscrTab
 .bss.MACRxBuf  0x000000002000361c     0x1800 ./NetLib/eth_driver.o
                0x000000002000361c                MACRxBuf
 .bss.MACTxBuf  0x0000000020004e1c      0xc00 ./NetLib/eth_driver.o
                0x0000000020004e1c                MACTxBuf
 .bss.Mem_ArpTable
                0x0000000020005a1c      0x4b0 ./NetLib/eth_driver.o
                0x0000000020005a1c                Mem_ArpTable
 .bss.Mem_Heap_Memory
                0x0000000020005ecc     0x284c ./NetLib/eth_driver.o
                0x0000000020005ecc                Mem_Heap_Memory
 .bss.Memp_Memory
                0x0000000020008718     0x2ea7 ./NetLib/eth_driver.o
                0x0000000020008718                Memp_Memory
 *fill*         0x000000002000b5bf        0x1 
 .bss.SocketInf
                0x000000002000b5c0      0x1a4 ./NetLib/eth_driver.o
                0x000000002000b5c0                SocketInf
 .bss.HtmlBuffer
                0x000000002000b764     0x2000 ./HTTP/HTTPS.o
                0x000000002000b764                HtmlBuffer
 .bss.Para_Basic
                0x000000002000d764       0x60 ./HTTP/HTTPS.o
                0x000000002000d764                Para_Basic
 .bss.Para_Login
                0x000000002000d7c4       0x30 ./HTTP/HTTPS.o
                0x000000002000d7c4                Para_Login
 .bss.Para_Port
                0x000000002000d7f4       0x60 ./HTTP/HTTPS.o
                0x000000002000d7f4                Para_Port
 .bss.basicbuf  0x000000002000d854       0x28 ./HTTP/HTTPS.o
                0x000000002000d854                basicbuf
 .bss.httpweb   0x000000002000d87c       0xc8 ./HTTP/HTTPS.o
                0x000000002000d87c                httpweb
 .bss.loginbuf  0x000000002000d944       0x28 ./HTTP/HTTPS.o
                0x000000002000d944                loginbuf
 .bss.portbuf   0x000000002000d96c       0x28 ./HTTP/HTTPS.o
                0x000000002000d96c                portbuf
 .bss.tempURL   0x000000002000d994       0x80 ./HTTP/HTTPS.o
                0x000000002000d994                tempURL
 .bss.SelARP    0x000000002000da14        0xc E:\VSCode\ArduinoProjects\Datasheets\CH32\CH32V307\CH32V307_EVT\Examples\ETH\NetLib\libwchnet.a(ipcheck.o)
                0x000000002000da14                SelARP
 .bss.DHCPCtrl  0x000000002000da20       0x18 E:\VSCode\ArduinoProjects\Datasheets\CH32\CH32V307\CH32V307_EVT\Examples\ETH\NetLib\libwchnet.a(net_dhcp.o)
                0x000000002000da20                DHCPCtrl
 .bss.dhcp_host_name
                0x000000002000da38       0x40 E:\VSCode\ArduinoProjects\Datasheets\CH32\CH32V307\CH32V307_EVT\Examples\ETH\NetLib\libwchnet.a(net_dhcp.o)
                0x000000002000da38                dhcp_host_name
 .bss.DNSInf    0x000000002000da78       0x14 E:\VSCode\ArduinoProjects\Datasheets\CH32\CH32V307\CH32V307_EVT\Examples\ETH\NetLib\libwchnet.a(net_dns.o)
                0x000000002000da78                DNSInf
 .bss.KeepLiveCfg
                0x000000002000da8c        0xc E:\VSCode\ArduinoProjects\Datasheets\CH32\CH32V307\CH32V307_EVT\Examples\ETH\NetLib\libwchnet.a(socket.o)
                0x000000002000da8c                KeepLiveCfg
 .bss.NetInf    0x000000002000da98       0x44 E:\VSCode\ArduinoProjects\Datasheets\CH32\CH32V307\CH32V307_EVT\Examples\ETH\NetLib\libwchnet.a(socket.o)
                0x000000002000da98                NetInf
 .bss.WCHCfg    0x000000002000dadc       0x2c E:\VSCode\ArduinoProjects\Datasheets\CH32\CH32V307\CH32V307_EVT\Examples\ETH\NetLib\libwchnet.a(socket.o)
                0x000000002000dadc                WCHCfg
 .bss.WCHNetIf  0x000000002000db08       0x38 E:\VSCode\ArduinoProjects\Datasheets\CH32\CH32V307\CH32V307_EVT\Examples\ETH\NetLib\libwchnet.a(ethernetif.o)
                0x000000002000db08                WCHNetIf
 .bss.memp_tab  0x000000002000db40       0x20 E:\VSCode\ArduinoProjects\Datasheets\CH32\CH32V307\CH32V307_EVT\Examples\ETH\NetLib\libwchnet.a(memp.o)
 .bss.inseg     0x000000002000db60       0x14 E:\VSCode\ArduinoProjects\Datasheets\CH32\CH32V307\CH32V307_EVT\Examples\ETH\NetLib\libwchnet.a(tcp_in.o)
 *(.gnu.linkonce.b.*)
 *(COMMON*)
 COMMON         0x000000002000db74        0x4 e:/program/mounriver/mounriver_studio/toolchain/risc-v embedded gcc/bin/../lib/gcc/riscv-none-embed/8.2.0/../../../../riscv-none-embed/lib/rv32imacxw/ilp32\libg_nano.a(lib_a-reent.o)
                0x000000002000db74                errno
                0x000000002000db78                . = ALIGN (0x4)
                0x000000002000db78                PROVIDE (_ebss = .)
                0x000000002000db78                PROVIDE (_end = _ebss)
                [!provide]                        PROVIDE (end = .)

.stack          0x000000002000f800      0x800
                0x000000002000f800                PROVIDE (_heap_end = .)
                0x000000002000f800                . = ALIGN (0x4)
                [!provide]                        PROVIDE (_susrstack = .)
                0x0000000020010000                . = (. + __stack_size)
 *fill*         0x000000002000f800      0x800 
                0x0000000020010000                PROVIDE (_eusrstack = .)
OUTPUT(WebServer.elf elf32-littleriscv)

.debug_info     0x0000000000000000    0x150fa
 .debug_info    0x0000000000000000      0xefb ./User/ch32v30x_it.o
 .debug_info    0x0000000000000efb     0x2266 ./User/main.o
 .debug_info    0x0000000000003161      0xb89 ./User/system_ch32v30x.o
 .debug_info    0x0000000000003cea       0x22 ./Startup/startup_ch32v30x_D8C.o
 .debug_info    0x0000000000003d0c      0xa94 ./Peripheral/src/ch32v30x_dbgmcu.o
 .debug_info    0x00000000000047a0     0x26f0 ./Peripheral/src/ch32v30x_eth.o
 .debug_info    0x0000000000006e90      0xc0d ./Peripheral/src/ch32v30x_exti.o
 .debug_info    0x0000000000007a9d     0x1382 ./Peripheral/src/ch32v30x_flash.o
 .debug_info    0x0000000000008e1f     0x1093 ./Peripheral/src/ch32v30x_gpio.o
 .debug_info    0x0000000000009eb2     0x156e ./Peripheral/src/ch32v30x_rcc.o
 .debug_info    0x000000000000b420     0x2a16 ./Peripheral/src/ch32v30x_tim.o
 .debug_info    0x000000000000de36     0x1420 ./Peripheral/src/ch32v30x_usart.o
 .debug_info    0x000000000000f256     0x258f ./NetLib/eth_driver.o
 .debug_info    0x00000000000117e5     0x258c ./HTTP/HTTPS.o
 .debug_info    0x0000000000013d71      0xf1c ./Debug/debug.o
 .debug_info    0x0000000000014c8d      0x46d ./Core/core_riscv.o

.debug_abbrev   0x0000000000000000     0x3161
 .debug_abbrev  0x0000000000000000      0x26e ./User/ch32v30x_it.o
 .debug_abbrev  0x000000000000026e      0x401 ./User/main.o
 .debug_abbrev  0x000000000000066f      0x2c0 ./User/system_ch32v30x.o
 .debug_abbrev  0x000000000000092f       0x12 ./Startup/startup_ch32v30x_D8C.o
 .debug_abbrev  0x0000000000000941      0x2f7 ./Peripheral/src/ch32v30x_dbgmcu.o
 .debug_abbrev  0x0000000000000c38      0x47b ./Peripheral/src/ch32v30x_eth.o
 .debug_abbrev  0x00000000000010b3      0x2da ./Peripheral/src/ch32v30x_exti.o
 .debug_abbrev  0x000000000000138d      0x42c ./Peripheral/src/ch32v30x_flash.o
 .debug_abbrev  0x00000000000017b9      0x309 ./Peripheral/src/ch32v30x_gpio.o
 .debug_abbrev  0x0000000000001ac2      0x351 ./Peripheral/src/ch32v30x_rcc.o
 .debug_abbrev  0x0000000000001e13      0x408 ./Peripheral/src/ch32v30x_tim.o
 .debug_abbrev  0x000000000000221b      0x312 ./Peripheral/src/ch32v30x_usart.o
 .debug_abbrev  0x000000000000252d      0x492 ./NetLib/eth_driver.o
 .debug_abbrev  0x00000000000029bf      0x39c ./HTTP/HTTPS.o
 .debug_abbrev  0x0000000000002d5b      0x2f9 ./Debug/debug.o
 .debug_abbrev  0x0000000000003054      0x10d ./Core/core_riscv.o

.debug_aranges  0x0000000000000000      0xe00
 .debug_aranges
                0x0000000000000000       0x40 ./User/ch32v30x_it.o
 .debug_aranges
                0x0000000000000040       0x60 ./User/main.o
 .debug_aranges
                0x00000000000000a0       0x28 ./User/system_ch32v30x.o
 .debug_aranges
                0x00000000000000c8       0x30 ./Startup/startup_ch32v30x_D8C.o
 .debug_aranges
                0x00000000000000f8       0x48 ./Peripheral/src/ch32v30x_dbgmcu.o
 .debug_aranges
                0x0000000000000140      0x300 ./Peripheral/src/ch32v30x_eth.o
 .debug_aranges
                0x0000000000000440       0x50 ./Peripheral/src/ch32v30x_exti.o
 .debug_aranges
                0x0000000000000490       0xf8 ./Peripheral/src/ch32v30x_flash.o
 .debug_aranges
                0x0000000000000588       0xa8 ./Peripheral/src/ch32v30x_gpio.o
 .debug_aranges
                0x0000000000000630      0x1a8 ./Peripheral/src/ch32v30x_rcc.o
 .debug_aranges
                0x00000000000007d8      0x2d0 ./Peripheral/src/ch32v30x_tim.o
 .debug_aranges
                0x0000000000000aa8      0x100 ./Peripheral/src/ch32v30x_usart.o
 .debug_aranges
                0x0000000000000ba8       0x98 ./NetLib/eth_driver.o
 .debug_aranges
                0x0000000000000c40       0x98 ./HTTP/HTTPS.o
 .debug_aranges
                0x0000000000000cd8       0x48 ./Debug/debug.o
 .debug_aranges
                0x0000000000000d20       0xe0 ./Core/core_riscv.o

.debug_ranges   0x0000000000000000      0xe30
 .debug_ranges  0x0000000000000000       0x30 ./User/ch32v30x_it.o
 .debug_ranges  0x0000000000000030       0x50 ./User/main.o
 .debug_ranges  0x0000000000000080       0x38 ./User/system_ch32v30x.o
 .debug_ranges  0x00000000000000b8       0x28 ./Startup/startup_ch32v30x_D8C.o
 .debug_ranges  0x00000000000000e0       0x50 ./Peripheral/src/ch32v30x_dbgmcu.o
 .debug_ranges  0x0000000000000130      0x368 ./Peripheral/src/ch32v30x_eth.o
 .debug_ranges  0x0000000000000498       0x40 ./Peripheral/src/ch32v30x_exti.o
 .debug_ranges  0x00000000000004d8       0xe8 ./Peripheral/src/ch32v30x_flash.o
 .debug_ranges  0x00000000000005c0       0x98 ./Peripheral/src/ch32v30x_gpio.o
 .debug_ranges  0x0000000000000658      0x198 ./Peripheral/src/ch32v30x_rcc.o
 .debug_ranges  0x00000000000007f0      0x2f0 ./Peripheral/src/ch32v30x_tim.o
 .debug_ranges  0x0000000000000ae0       0xf0 ./Peripheral/src/ch32v30x_usart.o
 .debug_ranges  0x0000000000000bd0       0xb8 ./NetLib/eth_driver.o
 .debug_ranges  0x0000000000000c88       0xa0 ./HTTP/HTTPS.o
 .debug_ranges  0x0000000000000d28       0x38 ./Debug/debug.o
 .debug_ranges  0x0000000000000d60       0xd0 ./Core/core_riscv.o

.debug_line     0x0000000000000000    0x128e3
 .debug_line    0x0000000000000000      0x4fa ./User/ch32v30x_it.o
 .debug_line    0x00000000000004fa      0xf12 ./User/main.o
 .debug_line    0x000000000000140c      0x7be ./User/system_ch32v30x.o
 .debug_line    0x0000000000001bca      0x3a0 ./Startup/startup_ch32v30x_D8C.o
 .debug_line    0x0000000000001f6a      0x41b ./Peripheral/src/ch32v30x_dbgmcu.o
 .debug_line    0x0000000000002385     0x32d3 ./Peripheral/src/ch32v30x_eth.o
 .debug_line    0x0000000000005658      0x68b ./Peripheral/src/ch32v30x_exti.o
 .debug_line    0x0000000000005ce3     0x1cd5 ./Peripheral/src/ch32v30x_flash.o
 .debug_line    0x00000000000079b8      0xdf9 ./Peripheral/src/ch32v30x_gpio.o
 .debug_line    0x00000000000087b1     0x1a3e ./Peripheral/src/ch32v30x_rcc.o
 .debug_line    0x000000000000a1ef     0x33ab ./Peripheral/src/ch32v30x_tim.o
 .debug_line    0x000000000000d59a     0x10dc ./Peripheral/src/ch32v30x_usart.o
 .debug_line    0x000000000000e676     0x1558 ./NetLib/eth_driver.o
 .debug_line    0x000000000000fbce     0x1fc1 ./HTTP/HTTPS.o
 .debug_line    0x0000000000011b8f      0x7b8 ./Debug/debug.o
 .debug_line    0x0000000000012347      0x59c ./Core/core_riscv.o

.debug_str      0x0000000000000000     0x4eb8
 .debug_str     0x0000000000000000      0x891 ./User/ch32v30x_it.o
                                        0x939 (size before relaxing)
 .debug_str     0x0000000000000891      0xbe8 ./User/main.o
                                       0x14b4 (size before relaxing)
 .debug_str     0x0000000000001479       0xf5 ./User/system_ch32v30x.o
                                        0x6eb (size before relaxing)
 .debug_str     0x000000000000156e       0x78 ./Startup/startup_ch32v30x_D8C.o
                                         0xd3 (size before relaxing)
 .debug_str     0x00000000000015e6       0xe1 ./Peripheral/src/ch32v30x_dbgmcu.o
                                        0x6af (size before relaxing)
 .debug_str     0x00000000000016c7     0x1244 ./Peripheral/src/ch32v30x_eth.o
                                       0x1966 (size before relaxing)
 .debug_str     0x000000000000290b      0x1ee ./Peripheral/src/ch32v30x_exti.o
                                        0x7f6 (size before relaxing)
 .debug_str     0x0000000000002af9      0x49d ./Peripheral/src/ch32v30x_flash.o
                                        0xadd (size before relaxing)
 .debug_str     0x0000000000002f96      0x27c ./Peripheral/src/ch32v30x_gpio.o
                                        0x9da (size before relaxing)
 .debug_str     0x0000000000003212      0x5e8 ./Peripheral/src/ch32v30x_rcc.o
                                        0xd33 (size before relaxing)
 .debug_str     0x00000000000037fa      0xa4d ./Peripheral/src/ch32v30x_tim.o
                                       0x12e4 (size before relaxing)
 .debug_str     0x0000000000004247      0x460 ./Peripheral/src/ch32v30x_usart.o
                                        0xb80 (size before relaxing)
 .debug_str     0x00000000000046a7      0x36c ./NetLib/eth_driver.o
                                       0x1955 (size before relaxing)
 .debug_str     0x0000000000004a13      0x274 ./HTTP/HTTPS.o
                                        0xac0 (size before relaxing)
 .debug_str     0x0000000000004c87       0xc0 ./Debug/debug.o
                                        0x968 (size before relaxing)
 .debug_str     0x0000000000004d47      0x171 ./Core/core_riscv.o
                                        0x349 (size before relaxing)

.comment        0x0000000000000000       0x33
 .comment       0x0000000000000000       0x33 ./User/ch32v30x_it.o
                                         0x34 (size before relaxing)
 .comment       0x0000000000000033       0x34 ./User/main.o
 .comment       0x0000000000000033       0x34 ./User/system_ch32v30x.o
 .comment       0x0000000000000033       0x34 ./Peripheral/src/ch32v30x_dbgmcu.o
 .comment       0x0000000000000033       0x34 ./Peripheral/src/ch32v30x_eth.o
 .comment       0x0000000000000033       0x34 ./Peripheral/src/ch32v30x_exti.o
 .comment       0x0000000000000033       0x34 ./Peripheral/src/ch32v30x_flash.o
 .comment       0x0000000000000033       0x34 ./Peripheral/src/ch32v30x_gpio.o
 .comment       0x0000000000000033       0x34 ./Peripheral/src/ch32v30x_rcc.o
 .comment       0x0000000000000033       0x34 ./Peripheral/src/ch32v30x_tim.o
 .comment       0x0000000000000033       0x34 ./Peripheral/src/ch32v30x_usart.o
 .comment       0x0000000000000033       0x34 ./NetLib/eth_driver.o
 .comment       0x0000000000000033       0x34 ./HTTP/HTTPS.o
 .comment       0x0000000000000033       0x34 ./Debug/debug.o
 .comment       0x0000000000000033       0x34 ./Core/core_riscv.o
 .comment       0x0000000000000033       0x34 E:\VSCode\ArduinoProjects\Datasheets\CH32\CH32V307\CH32V307_EVT\Examples\ETH\NetLib\libwchnet.a(eth_api.o)
 .comment       0x0000000000000033       0x34 E:\VSCode\ArduinoProjects\Datasheets\CH32\CH32V307\CH32V307_EVT\Examples\ETH\NetLib\libwchnet.a(ipcheck.o)
 .comment       0x0000000000000033       0x34 E:\VSCode\ArduinoProjects\Datasheets\CH32\CH32V307\CH32V307_EVT\Examples\ETH\NetLib\libwchnet.a(net_dhcp.o)
 .comment       0x0000000000000033       0x34 E:\VSCode\ArduinoProjects\Datasheets\CH32\CH32V307\CH32V307_EVT\Examples\ETH\NetLib\libwchnet.a(net_dns.o)
 .comment       0x0000000000000033       0x34 E:\VSCode\ArduinoProjects\Datasheets\CH32\CH32V307\CH32V307_EVT\Examples\ETH\NetLib\libwchnet.a(socket.o)
 .comment       0x0000000000000033       0x34 E:\VSCode\ArduinoProjects\Datasheets\CH32\CH32V307\CH32V307_EVT\Examples\ETH\NetLib\libwchnet.a(etharp.o)
 .comment       0x0000000000000033       0x34 E:\VSCode\ArduinoProjects\Datasheets\CH32\CH32V307\CH32V307_EVT\Examples\ETH\NetLib\libwchnet.a(ethernetif.o)
 .comment       0x0000000000000033       0x34 E:\VSCode\ArduinoProjects\Datasheets\CH32\CH32V307\CH32V307_EVT\Examples\ETH\NetLib\libwchnet.a(inet.o)
 .comment       0x0000000000000033       0x34 E:\VSCode\ArduinoProjects\Datasheets\CH32\CH32V307\CH32V307_EVT\Examples\ETH\NetLib\libwchnet.a(ip.o)
 .comment       0x0000000000000033       0x34 E:\VSCode\ArduinoProjects\Datasheets\CH32\CH32V307\CH32V307_EVT\Examples\ETH\NetLib\libwchnet.a(ip_addr.o)
 .comment       0x0000000000000033       0x34 E:\VSCode\ArduinoProjects\Datasheets\CH32\CH32V307\CH32V307_EVT\Examples\ETH\NetLib\libwchnet.a(ip_frag.o)
 .comment       0x0000000000000033       0x34 E:\VSCode\ArduinoProjects\Datasheets\CH32\CH32V307\CH32V307_EVT\Examples\ETH\NetLib\libwchnet.a(dhcp.o)
 .comment       0x0000000000000033       0x34 E:\VSCode\ArduinoProjects\Datasheets\CH32\CH32V307\CH32V307_EVT\Examples\ETH\NetLib\libwchnet.a(init.o)
 .comment       0x0000000000000033       0x34 E:\VSCode\ArduinoProjects\Datasheets\CH32\CH32V307\CH32V307_EVT\Examples\ETH\NetLib\libwchnet.a(mem.o)
 .comment       0x0000000000000033       0x34 E:\VSCode\ArduinoProjects\Datasheets\CH32\CH32V307\CH32V307_EVT\Examples\ETH\NetLib\libwchnet.a(memp.o)
 .comment       0x0000000000000033       0x34 E:\VSCode\ArduinoProjects\Datasheets\CH32\CH32V307\CH32V307_EVT\Examples\ETH\NetLib\libwchnet.a(netif.o)
 .comment       0x0000000000000033       0x34 E:\VSCode\ArduinoProjects\Datasheets\CH32\CH32V307\CH32V307_EVT\Examples\ETH\NetLib\libwchnet.a(pbuf.o)
 .comment       0x0000000000000033       0x34 E:\VSCode\ArduinoProjects\Datasheets\CH32\CH32V307\CH32V307_EVT\Examples\ETH\NetLib\libwchnet.a(raw.o)
 .comment       0x0000000000000033       0x34 E:\VSCode\ArduinoProjects\Datasheets\CH32\CH32V307\CH32V307_EVT\Examples\ETH\NetLib\libwchnet.a(tcp.o)
 .comment       0x0000000000000033       0x34 E:\VSCode\ArduinoProjects\Datasheets\CH32\CH32V307\CH32V307_EVT\Examples\ETH\NetLib\libwchnet.a(tcp_in.o)
 .comment       0x0000000000000033       0x34 E:\VSCode\ArduinoProjects\Datasheets\CH32\CH32V307\CH32V307_EVT\Examples\ETH\NetLib\libwchnet.a(tcp_out.o)
 .comment       0x0000000000000033       0x34 E:\VSCode\ArduinoProjects\Datasheets\CH32\CH32V307\CH32V307_EVT\Examples\ETH\NetLib\libwchnet.a(udp.o)
 .comment       0x0000000000000033       0x34 E:\VSCode\ArduinoProjects\Datasheets\CH32\CH32V307\CH32V307_EVT\Examples\ETH\NetLib\libwchnet.a(icmp.o)
 .comment       0x0000000000000033       0x34 E:\VSCode\ArduinoProjects\Datasheets\CH32\CH32V307\CH32V307_EVT\Examples\ETH\NetLib\libwchnet.a(inet_chksum.o)
 .comment       0x0000000000000033       0x34 e:/program/mounriver/mounriver_studio/toolchain/risc-v embedded gcc/bin/../lib/gcc/riscv-none-embed/8.2.0/../../../../riscv-none-embed/lib/rv32imacxw/ilp32\libprintf.a(wchprintf.o)

.debug_frame    0x0000000000000000     0x2400
 .debug_frame   0x0000000000000000       0xa8 ./User/ch32v30x_it.o
 .debug_frame   0x00000000000000a8      0x158 ./User/main.o
 .debug_frame   0x0000000000000200       0x3c ./User/system_ch32v30x.o
 .debug_frame   0x000000000000023c       0x70 ./Peripheral/src/ch32v30x_dbgmcu.o
 .debug_frame   0x00000000000002ac      0x6a4 ./Peripheral/src/ch32v30x_eth.o
 .debug_frame   0x0000000000000950       0x90 ./Peripheral/src/ch32v30x_exti.o
 .debug_frame   0x00000000000009e0      0x320 ./Peripheral/src/ch32v30x_flash.o
 .debug_frame   0x0000000000000d00      0x148 ./Peripheral/src/ch32v30x_gpio.o
 .debug_frame   0x0000000000000e48      0x344 ./Peripheral/src/ch32v30x_rcc.o
 .debug_frame   0x000000000000118c      0x614 ./Peripheral/src/ch32v30x_tim.o
 .debug_frame   0x00000000000017a0      0x204 ./Peripheral/src/ch32v30x_usart.o
 .debug_frame   0x00000000000019a4      0x1f0 ./NetLib/eth_driver.o
 .debug_frame   0x0000000000001b94      0x288 ./HTTP/HTTPS.o
 .debug_frame   0x0000000000001e1c       0x9c ./Debug/debug.o
 .debug_frame   0x0000000000001eb8      0x1a0 ./Core/core_riscv.o
 .debug_frame   0x0000000000002058       0x30 e:/program/mounriver/mounriver_studio/toolchain/risc-v embedded gcc/bin/../lib/gcc/riscv-none-embed/8.2.0/../../../../riscv-none-embed/lib/rv32imacxw/ilp32\libg_nano.a(lib_a-atoi.o)
 .debug_frame   0x0000000000002088       0x20 e:/program/mounriver/mounriver_studio/toolchain/risc-v embedded gcc/bin/../lib/gcc/riscv-none-embed/8.2.0/../../../../riscv-none-embed/lib/rv32imacxw/ilp32\libg_nano.a(lib_a-memcpy.o)
 .debug_frame   0x00000000000020a8       0x20 e:/program/mounriver/mounriver_studio/toolchain/risc-v embedded gcc/bin/../lib/gcc/riscv-none-embed/8.2.0/../../../../riscv-none-embed/lib/rv32imacxw/ilp32\libg_nano.a(lib_a-strcpy.o)
 .debug_frame   0x00000000000020c8       0x20 e:/program/mounriver/mounriver_studio/toolchain/risc-v embedded gcc/bin/../lib/gcc/riscv-none-embed/8.2.0/../../../../riscv-none-embed/lib/rv32imacxw/ilp32\libg_nano.a(lib_a-strlen.o)
 .debug_frame   0x00000000000020e8       0x20 e:/program/mounriver/mounriver_studio/toolchain/risc-v embedded gcc/bin/../lib/gcc/riscv-none-embed/8.2.0/../../../../riscv-none-embed/lib/rv32imacxw/ilp32\libg_nano.a(lib_a-strstr.o)
 .debug_frame   0x0000000000002108       0x38 e:/program/mounriver/mounriver_studio/toolchain/risc-v embedded gcc/bin/../lib/gcc/riscv-none-embed/8.2.0/../../../../riscv-none-embed/lib/rv32imacxw/ilp32\libg_nano.a(lib_a-strtok.o)
 .debug_frame   0x0000000000002140       0x30 e:/program/mounriver/mounriver_studio/toolchain/risc-v embedded gcc/bin/../lib/gcc/riscv-none-embed/8.2.0/../../../../riscv-none-embed/lib/rv32imacxw/ilp32\libg_nano.a(lib_a-strtok_r.o)
 .debug_frame   0x0000000000002170       0x70 e:/program/mounriver/mounriver_studio/toolchain/risc-v embedded gcc/bin/../lib/gcc/riscv-none-embed/8.2.0/../../../../riscv-none-embed/lib/rv32imacxw/ilp32\libg_nano.a(lib_a-strtol.o)
 .debug_frame   0x00000000000021e0       0x78 e:/program/mounriver/mounriver_studio/toolchain/risc-v embedded gcc/bin/../lib/gcc/riscv-none-embed/8.2.0/../../../../riscv-none-embed/lib/rv32imacxw/ilp32\libg_nano.a(lib_a-locale.o)
 .debug_frame   0x0000000000002258       0x30 e:/program/mounriver/mounriver_studio/toolchain/risc-v embedded gcc/bin/../lib/gcc/riscv-none-embed/8.2.0/../../../../riscv-none-embed/lib/rv32imacxw/ilp32\libg_nano.a(lib_a-malloc.o)
 .debug_frame   0x0000000000002288       0x38 e:/program/mounriver/mounriver_studio/toolchain/risc-v embedded gcc/bin/../lib/gcc/riscv-none-embed/8.2.0/../../../../riscv-none-embed/lib/rv32imacxw/ilp32\libg_nano.a(lib_a-mbtowc_r.o)
 .debug_frame   0x00000000000022c0       0x40 e:/program/mounriver/mounriver_studio/toolchain/risc-v embedded gcc/bin/../lib/gcc/riscv-none-embed/8.2.0/../../../../riscv-none-embed/lib/rv32imacxw/ilp32\libg_nano.a(lib_a-nano-mallocr.o)
 .debug_frame   0x0000000000002300       0x30 e:/program/mounriver/mounriver_studio/toolchain/risc-v embedded gcc/bin/../lib/gcc/riscv-none-embed/8.2.0/../../../../riscv-none-embed/lib/rv32imacxw/ilp32\libg_nano.a(lib_a-sbrkr.o)
 .debug_frame   0x0000000000002330       0x30 e:/program/mounriver/mounriver_studio/toolchain/risc-v embedded gcc/bin/../lib/gcc/riscv-none-embed/8.2.0/../../../../riscv-none-embed/lib/rv32imacxw/ilp32\libg_nano.a(lib_a-wctomb_r.o)
 .debug_frame   0x0000000000002360       0x30 e:/program/mounriver/mounriver_studio/toolchain/risc-v embedded gcc/bin/../lib/gcc/riscv-none-embed/8.2.0/../../../../riscv-none-embed/lib/rv32imacxw/ilp32\libg_nano.a(lib_a-mlock.o)
 .debug_frame   0x0000000000002390       0x70 e:/program/mounriver/mounriver_studio/toolchain/risc-v embedded gcc/bin/../lib/gcc/riscv-none-embed/8.2.0/../../../../riscv-none-embed/lib/rv32imacxw/ilp32\libg_nano.a(lib_a-reent.o)

.debug_loc      0x0000000000000000     0x64e2
 .debug_loc     0x0000000000000000      0x228 ./User/main.o
 .debug_loc     0x0000000000000228       0xda ./User/system_ch32v30x.o
 .debug_loc     0x0000000000000302       0x6e ./Peripheral/src/ch32v30x_dbgmcu.o
 .debug_loc     0x0000000000000370      0xef1 ./Peripheral/src/ch32v30x_eth.o
 .debug_loc     0x0000000000001261      0x181 ./Peripheral/src/ch32v30x_exti.o
 .debug_loc     0x00000000000013e2      0x7f2 ./Peripheral/src/ch32v30x_flash.o
 .debug_loc     0x0000000000001bd4      0x670 ./Peripheral/src/ch32v30x_gpio.o
 .debug_loc     0x0000000000002244      0xadb ./Peripheral/src/ch32v30x_rcc.o
 .debug_loc     0x0000000000002d1f     0x195e ./Peripheral/src/ch32v30x_tim.o
 .debug_loc     0x000000000000467d      0x7bb ./Peripheral/src/ch32v30x_usart.o
 .debug_loc     0x0000000000004e38      0x4fa ./NetLib/eth_driver.o
 .debug_loc     0x0000000000005332     0x1039 ./HTTP/HTTPS.o
 .debug_loc     0x000000000000636b      0x177 ./Debug/debug.o
